
/scratch/msc21h15/spatz/software/bin/basic:	file format elf32-littleriscv

Disassembly of section .text:

80000000 <_start>:
80000000: 97 21 00 00  	auipc	gp, 2
80000004: 93 81 41 99  	addi	gp, gp, -1644
80000008: 6f 00 40 00  	j	0x8000000c <_reset_vector>

8000000c <_reset_vector>:
8000000c: 93 00 00 00  	mv	ra, zero
80000010: 13 02 00 00  	mv	tp, zero
80000014: 93 02 00 00  	mv	t0, zero
80000018: 13 03 00 00  	mv	t1, zero
8000001c: 93 03 00 00  	mv	t2, zero
80000020: 13 04 00 00  	mv	s0, zero
80000024: 93 04 00 00  	mv	s1, zero
80000028: 13 05 00 00  	mv	a0, zero
8000002c: 93 05 00 00  	mv	a1, zero
80000030: 13 06 00 00  	mv	a2, zero
80000034: 93 06 00 00  	mv	a3, zero
80000038: 13 07 00 00  	mv	a4, zero
8000003c: 93 07 00 00  	mv	a5, zero
80000040: 13 08 00 00  	mv	a6, zero
80000044: 93 08 00 00  	mv	a7, zero
80000048: 13 09 00 00  	mv	s2, zero
8000004c: 93 09 00 00  	mv	s3, zero
80000050: 13 0a 00 00  	mv	s4, zero
80000054: 13 05 00 00  	mv	a0, zero
80000058: 93 0a 00 00  	mv	s5, zero
8000005c: 13 0b 00 00  	mv	s6, zero
80000060: 93 0b 00 00  	mv	s7, zero
80000064: 13 0c 00 00  	mv	s8, zero
80000068: 93 0c 00 00  	mv	s9, zero
8000006c: 13 0d 00 00  	mv	s10, zero
80000070: 93 0d 00 00  	mv	s11, zero
80000074: 13 0e 00 00  	mv	t3, zero
80000078: 93 0e 00 00  	mv	t4, zero
8000007c: 13 0f 00 00  	mv	t5, zero
80000080: 93 0f 00 00  	mv	t6, zero
80000084: 97 00 00 00  	auipc	ra, 0
80000088: e7 80 80 02  	jalr	40(ra)

8000008c <_eoc>:
8000008c: 97 02 00 c0  	auipc	t0, 786432
80000090: 93 82 42 f7  	addi	t0, t0, -140
80000094: 13 13 15 00  	slli	t1, a0, 1
80000098: 13 03 13 00  	addi	t1, t1, 1
8000009c: 23 a0 62 00  	sw	t1, 0(t0)
800000a0: 97 00 00 00  	auipc	ra, 0
800000a4: 93 80 00 f6  	addi	ra, ra, -160
800000a8: 67 80 00 00  	ret

800000ac <main>:
800000ac: 13 05 00 08  	addi	a0, zero, 128
800000b0: 57 75 25 0c  	vsetvli	a0, a0, e8,m4,ta,ma
800000b4: 67 80 00 00  	ret

800000b8 <printf_>:
800000b8: 13 01 01 fd  	addi	sp, sp, -48
800000bc: 23 26 11 00  	sw	ra, 12(sp)
800000c0: 93 02 05 00  	mv	t0, a0
800000c4: 23 26 11 03  	sw	a7, 44(sp)
800000c8: 23 24 01 03  	sw	a6, 40(sp)
800000cc: 23 22 f1 02  	sw	a5, 36(sp)
800000d0: 23 20 e1 02  	sw	a4, 32(sp)
800000d4: 23 2e d1 00  	sw	a3, 28(sp)
800000d8: 23 2c c1 00  	sw	a2, 24(sp)
800000dc: 23 2a b1 00  	sw	a1, 20(sp)
800000e0: 13 05 41 01  	addi	a0, sp, 20
800000e4: 23 24 a1 00  	sw	a0, 8(sp)
800000e8: 17 05 00 00  	auipc	a0, 0
800000ec: 13 05 05 78  	addi	a0, a0, 1920
800000f0: 93 05 71 00  	addi	a1, sp, 7
800000f4: 13 06 f0 ff  	addi	a2, zero, -1
800000f8: 13 07 41 01  	addi	a4, sp, 20
800000fc: 93 86 02 00  	mv	a3, t0
80000100: 97 00 00 00  	auipc	ra, 0
80000104: e7 80 40 01  	jalr	20(ra)
80000108: 83 20 c1 00  	lw	ra, 12(sp)
8000010c: 13 01 01 03  	addi	sp, sp, 48
80000110: 67 80 00 00  	ret

80000114 <_vsnprintf>:
80000114: 13 01 01 fb  	addi	sp, sp, -80
80000118: 23 26 11 04  	sw	ra, 76(sp)
8000011c: 23 24 81 04  	sw	s0, 72(sp)
80000120: 23 22 91 04  	sw	s1, 68(sp)
80000124: 23 20 21 05  	sw	s2, 64(sp)
80000128: 23 2e 31 03  	sw	s3, 60(sp)
8000012c: 23 2c 41 03  	sw	s4, 56(sp)
80000130: 23 2a 51 03  	sw	s5, 52(sp)
80000134: 23 28 61 03  	sw	s6, 48(sp)
80000138: 23 26 71 03  	sw	s7, 44(sp)
8000013c: 23 24 81 03  	sw	s8, 40(sp)
80000140: 23 22 91 03  	sw	s9, 36(sp)
80000144: 23 20 a1 03  	sw	s10, 32(sp)
80000148: 23 2e b1 01  	sw	s11, 28(sp)
8000014c: 23 2c e1 00  	sw	a4, 24(sp)
80000150: 13 84 06 00  	mv	s0, a3
80000154: 93 0a 06 00  	mv	s5, a2
80000158: 13 8a 05 00  	mv	s4, a1
8000015c: 63 86 05 00  	beqz	a1, 0x80000168 <_vsnprintf+0x54>
80000160: 13 09 05 00  	mv	s2, a0
80000164: 6f 00 c0 00  	j	0x80000170 <_vsnprintf+0x5c>
80000168: 17 19 00 00  	auipc	s2, 1
8000016c: 13 09 49 86  	addi	s2, s2, -1948
80000170: 93 09 00 00  	mv	s3, zero
80000174: 93 0c 50 02  	addi	s9, zero, 37
80000178: 13 0c 00 01  	addi	s8, zero, 16
8000017c: 13 0b 90 00  	addi	s6, zero, 9
80000180: 13 0d a0 00  	addi	s10, zero, 10
80000184: 37 05 01 00  	lui	a0, 16
80000188: 13 05 f5 ff  	addi	a0, a0, -1
8000018c: 23 28 a1 00  	sw	a0, 16(sp)
80000190: 93 0d 24 00  	addi	s11, s0, 2
80000194: 03 45 04 00  	lbu	a0, 0(s0)
80000198: 63 0a 05 66  	beqz	a0, 0x8000080c <_vsnprintf+0x6f8>
8000019c: 63 08 95 03  	beq	a0, s9, 0x800001cc <_vsnprintf+0xb8>
800001a0: 93 84 19 00  	addi	s1, s3, 1
800001a4: 93 05 0a 00  	mv	a1, s4
800001a8: 13 86 09 00  	mv	a2, s3
800001ac: 93 86 0a 00  	mv	a3, s5
800001b0: e7 00 09 00  	jalr	s2
800001b4: 13 04 14 00  	addi	s0, s0, 1
800001b8: 93 8d 1d 00  	addi	s11, s11, 1
800001bc: 93 89 04 00  	mv	s3, s1
800001c0: 03 45 04 00  	lbu	a0, 0(s0)
800001c4: e3 1c 05 fc  	bnez	a0, 0x8000019c <_vsnprintf+0x88>
800001c8: 6f 00 40 64  	j	0x8000080c <_vsnprintf+0x6f8>
800001cc: 13 0e 00 00  	mv	t3, zero
800001d0: 03 24 81 01  	lw	s0, 24(sp)
800001d4: 6f 00 c0 00  	j	0x800001e0 <_vsnprintf+0xcc>
800001d8: 13 6e 8e 00  	ori	t3, t3, 8
800001dc: 93 8d 1d 00  	addi	s11, s11, 1
800001e0: 03 c5 fd ff  	lbu	a0, -1(s11)
800001e4: 93 05 05 fe  	addi	a1, a0, -32
800001e8: 63 66 bc 04  	bltu	s8, a1, 0x80000234 <_vsnprintf+0x120>
800001ec: 93 95 25 00  	slli	a1, a1, 2
800001f0: 17 16 00 00  	auipc	a2, 1
800001f4: 13 06 06 e1  	addi	a2, a2, -496
800001f8: b3 85 c5 00  	add	a1, a1, a2
800001fc: 83 a5 05 00  	lw	a1, 0(a1)
80000200: 67 80 05 00  	jr	a1
80000204: 13 6e 0e 01  	ori	t3, t3, 16
80000208: 93 8d 1d 00  	addi	s11, s11, 1
8000020c: 6f f0 5f fd  	j	0x800001e0 <_vsnprintf+0xcc>
80000210: 13 6e 4e 00  	ori	t3, t3, 4
80000214: 93 8d 1d 00  	addi	s11, s11, 1
80000218: 6f f0 9f fc  	j	0x800001e0 <_vsnprintf+0xcc>
8000021c: 13 6e 2e 00  	ori	t3, t3, 2
80000220: 93 8d 1d 00  	addi	s11, s11, 1
80000224: 6f f0 df fb  	j	0x800001e0 <_vsnprintf+0xcc>
80000228: 13 6e 1e 00  	ori	t3, t3, 1
8000022c: 93 8d 1d 00  	addi	s11, s11, 1
80000230: 6f f0 1f fb  	j	0x800001e0 <_vsnprintf+0xcc>
80000234: 93 05 05 fd  	addi	a1, a0, -48
80000238: 13 f6 f5 0f  	andi	a2, a1, 255
8000023c: 93 85 fd ff  	addi	a1, s11, -1
80000240: 63 60 cb 08  	bltu	s6, a2, 0x800002c0 <_vsnprintf+0x1ac>
80000244: 93 0b 00 00  	mv	s7, zero
80000248: 13 76 f5 0f  	andi	a2, a0, 255
8000024c: 03 c5 15 00  	lbu	a0, 1(a1)
80000250: b3 86 ab 03  	mul	a3, s7, s10
80000254: 93 85 15 00  	addi	a1, a1, 1
80000258: 33 86 c6 00  	add	a2, a3, a2
8000025c: 93 06 05 fd  	addi	a3, a0, -48
80000260: 93 f6 f6 0f  	andi	a3, a3, 255
80000264: 93 0b 06 fd  	addi	s7, a2, -48
80000268: e3 e0 a6 ff  	bltu	a3, s10, 0x80000248 <_vsnprintf+0x134>
8000026c: 93 8d 05 00  	mv	s11, a1
80000270: 93 05 e0 02  	addi	a1, zero, 46
80000274: 63 1a b5 0a  	bne	a0, a1, 0x80000328 <_vsnprintf+0x214>
80000278: 03 c5 1d 00  	lbu	a0, 1(s11)
8000027c: 13 6e 0e 40  	ori	t3, t3, 1024
80000280: 93 05 05 fd  	addi	a1, a0, -48
80000284: 13 f6 f5 0f  	andi	a2, a1, 255
80000288: 93 85 1d 00  	addi	a1, s11, 1
8000028c: 13 07 90 00  	addi	a4, zero, 9
80000290: 63 62 cb 06  	bltu	s6, a2, 0x800002f4 <_vsnprintf+0x1e0>
80000294: 13 0b 00 00  	mv	s6, zero
80000298: 13 76 f5 0f  	andi	a2, a0, 255
8000029c: 03 c5 15 00  	lbu	a0, 1(a1)
800002a0: b3 06 ab 03  	mul	a3, s6, s10
800002a4: 93 85 15 00  	addi	a1, a1, 1
800002a8: 33 86 c6 00  	add	a2, a3, a2
800002ac: 93 06 05 fd  	addi	a3, a0, -48
800002b0: 93 f6 f6 0f  	andi	a3, a3, 255
800002b4: 13 0b 06 fd  	addi	s6, a2, -48
800002b8: e3 e0 a6 ff  	bltu	a3, s10, 0x80000298 <_vsnprintf+0x184>
800002bc: 6f 00 c0 07  	j	0x80000338 <_vsnprintf+0x224>
800002c0: 13 06 a0 02  	addi	a2, zero, 42
800002c4: 63 1a c5 04  	bne	a0, a2, 0x80000318 <_vsnprintf+0x204>
800002c8: 83 25 04 00  	lw	a1, 0(s0)
800002cc: 63 d4 05 00  	bgez	a1, 0x800002d4 <_vsnprintf+0x1c0>
800002d0: 13 6e 2e 00  	ori	t3, t3, 2
800002d4: 13 04 44 00  	addi	s0, s0, 4
800002d8: 03 c5 0d 00  	lbu	a0, 0(s11)
800002dc: 13 d6 f5 41  	srai	a2, a1, 31
800002e0: b3 85 c5 00  	add	a1, a1, a2
800002e4: b3 cb c5 00  	xor	s7, a1, a2
800002e8: 93 05 e0 02  	addi	a1, zero, 46
800002ec: e3 06 b5 f8  	beq	a0, a1, 0x80000278 <_vsnprintf+0x164>
800002f0: 6f 00 80 03  	j	0x80000328 <_vsnprintf+0x214>
800002f4: 13 06 a0 02  	addi	a2, zero, 42
800002f8: 63 1e c5 02  	bne	a0, a2, 0x80000334 <_vsnprintf+0x220>
800002fc: 03 2b 04 00  	lw	s6, 0(s0)
80000300: 63 44 60 01  	bgtz	s6, 0x80000308 <_vsnprintf+0x1f4>
80000304: 13 0b 00 00  	mv	s6, zero
80000308: 03 c5 2d 00  	lbu	a0, 2(s11)
8000030c: 93 8d 2d 00  	addi	s11, s11, 2
80000310: 13 04 44 00  	addi	s0, s0, 4
80000314: 6f 00 80 02  	j	0x8000033c <_vsnprintf+0x228>
80000318: 93 0b 00 00  	mv	s7, zero
8000031c: 93 8d 05 00  	mv	s11, a1
80000320: 93 05 e0 02  	addi	a1, zero, 46
80000324: e3 0a b5 f4  	beq	a0, a1, 0x80000278 <_vsnprintf+0x164>
80000328: 13 07 90 00  	addi	a4, zero, 9
8000032c: 13 0b 00 00  	mv	s6, zero
80000330: 6f 00 c0 00  	j	0x8000033c <_vsnprintf+0x228>
80000334: 13 0b 00 00  	mv	s6, zero
80000338: 93 8d 05 00  	mv	s11, a1
8000033c: 93 05 85 f9  	addi	a1, a0, -104
80000340: 13 d6 15 00  	srli	a2, a1, 1
80000344: 93 95 f5 01  	slli	a1, a1, 31
80000348: b3 e5 c5 00  	or	a1, a1, a2
8000034c: 13 06 10 00  	addi	a2, zero, 1
80000350: 63 4e b6 00  	blt	a2, a1, 0x8000036c <_vsnprintf+0x258>
80000354: 63 88 05 02  	beqz	a1, 0x80000384 <_vsnprintf+0x270>
80000358: 13 06 10 00  	addi	a2, zero, 1
8000035c: 63 9a c5 04  	bne	a1, a2, 0x800003b0 <_vsnprintf+0x29c>
80000360: 13 6e 0e 20  	ori	t3, t3, 512
80000364: b3 8d bd 00  	add	s11, s11, a1
80000368: 6f 00 40 04  	j	0x800003ac <_vsnprintf+0x298>
8000036c: 13 06 20 00  	addi	a2, zero, 2
80000370: 63 84 c5 02  	beq	a1, a2, 0x80000398 <_vsnprintf+0x284>
80000374: 63 9e e5 02  	bne	a1, a4, 0x800003b0 <_vsnprintf+0x29c>
80000378: 13 6e 0e 10  	ori	t3, t3, 256
8000037c: 93 8d 1d 00  	addi	s11, s11, 1
80000380: 6f 00 c0 02  	j	0x800003ac <_vsnprintf+0x298>
80000384: 03 c5 1d 00  	lbu	a0, 1(s11)
80000388: 93 05 80 06  	addi	a1, zero, 104
8000038c: 63 1e b5 06  	bne	a0, a1, 0x80000408 <_vsnprintf+0x2f4>
80000390: 13 6e 0e 0c  	ori	t3, t3, 192
80000394: 6f 00 40 01  	j	0x800003a8 <_vsnprintf+0x294>
80000398: 03 c5 1d 00  	lbu	a0, 1(s11)
8000039c: 93 05 c0 06  	addi	a1, zero, 108
800003a0: 63 1a b5 06  	bne	a0, a1, 0x80000414 <_vsnprintf+0x300>
800003a4: 13 6e 0e 30  	ori	t3, t3, 768
800003a8: 93 8d 2d 00  	addi	s11, s11, 2
800003ac: 03 c5 0d 00  	lbu	a0, 0(s11)
800003b0: 93 05 b5 fd  	addi	a1, a0, -37
800003b4: 13 06 30 05  	addi	a2, zero, 83
800003b8: 63 6c b6 06  	bltu	a2, a1, 0x80000430 <_vsnprintf+0x31c>
800003bc: 93 95 25 00  	slli	a1, a1, 2
800003c0: 17 16 00 00  	auipc	a2, 1
800003c4: 13 06 46 c8  	addi	a2, a2, -892
800003c8: b3 85 c5 00  	add	a1, a1, a2
800003cc: 03 a6 05 00  	lw	a2, 0(a1)
800003d0: 93 05 80 00  	addi	a1, zero, 8
800003d4: 13 08 00 01  	addi	a6, zero, 16
800003d8: 67 00 06 00  	jr	a2
800003dc: 13 7e fe fe  	andi	t3, t3, -17
800003e0: 13 08 a0 00  	addi	a6, zero, 10
800003e4: 93 05 80 05  	addi	a1, zero, 88
800003e8: 63 14 b5 00  	bne	a0, a1, 0x800003f0 <_vsnprintf+0x2dc>
800003ec: 13 6e 0e 02  	ori	t3, t3, 32
800003f0: 93 05 40 06  	addi	a1, zero, 100
800003f4: 63 04 b5 06  	beq	a0, a1, 0x8000045c <_vsnprintf+0x348>
800003f8: 93 05 08 00  	mv	a1, a6
800003fc: 13 06 90 06  	addi	a2, zero, 105
80000400: 63 0e c5 04  	beq	a0, a2, 0x8000045c <_vsnprintf+0x348>
80000404: 6f 00 00 05  	j	0x80000454 <_vsnprintf+0x340>
80000408: 13 6e 0e 08  	ori	t3, t3, 128
8000040c: 93 8d 1d 00  	addi	s11, s11, 1
80000410: 6f f0 1f fa  	j	0x800003b0 <_vsnprintf+0x29c>
80000414: 13 6e 0e 10  	ori	t3, t3, 256
80000418: 93 8d 1d 00  	addi	s11, s11, 1
8000041c: 6f f0 5f f9  	j	0x800003b0 <_vsnprintf+0x29c>
80000420: 23 2c 81 00  	sw	s0, 24(sp)
80000424: 13 84 19 00  	addi	s0, s3, 1
80000428: 13 05 50 02  	addi	a0, zero, 37
8000042c: 6f 00 c0 00  	j	0x80000438 <_vsnprintf+0x324>
80000430: 23 2c 81 00  	sw	s0, 24(sp)
80000434: 13 84 19 00  	addi	s0, s3, 1
80000438: 93 05 0a 00  	mv	a1, s4
8000043c: 13 86 09 00  	mv	a2, s3
80000440: 93 86 0a 00  	mv	a3, s5
80000444: e7 00 09 00  	jalr	s2
80000448: 93 09 04 00  	mv	s3, s0
8000044c: 6f 00 c0 37  	j	0x800007c8 <_vsnprintf+0x6b4>
80000450: 93 05 20 00  	addi	a1, zero, 2
80000454: 13 7e 3e ff  	andi	t3, t3, -13
80000458: 13 88 05 00  	mv	a6, a1
8000045c: 93 75 0e 40  	andi	a1, t3, 1024
80000460: 63 84 05 00  	beqz	a1, 0x80000468 <_vsnprintf+0x354>
80000464: 13 7e ee ff  	andi	t3, t3, -2
80000468: 93 05 90 06  	addi	a1, zero, 105
8000046c: 63 06 b5 00  	beq	a0, a1, 0x80000478 <_vsnprintf+0x364>
80000470: 93 05 40 06  	addi	a1, zero, 100
80000474: 63 1a b5 02  	bne	a0, a1, 0x800004a8 <_vsnprintf+0x394>
80000478: 13 75 0e 20  	andi	a0, t3, 512
8000047c: 63 1e 05 04  	bnez	a0, 0x800004d8 <_vsnprintf+0x3c4>
80000480: 13 75 0e 10  	andi	a0, t3, 256
80000484: 63 1e 05 04  	bnez	a0, 0x800004e0 <_vsnprintf+0x3cc>
80000488: 13 75 0e 04  	andi	a0, t3, 64
8000048c: 63 1a 05 20  	bnez	a0, 0x800006a0 <_vsnprintf+0x58c>
80000490: 03 25 04 00  	lw	a0, 0(s0)
80000494: 93 75 0e 08  	andi	a1, t3, 128
80000498: 63 86 05 20  	beqz	a1, 0x800006a4 <_vsnprintf+0x590>
8000049c: 13 15 05 01  	slli	a0, a0, 16
800004a0: 13 55 05 41  	srai	a0, a0, 16
800004a4: 6f 00 00 20  	j	0x800006a4 <_vsnprintf+0x590>
800004a8: 13 75 0e 20  	andi	a0, t3, 512
800004ac: 63 16 05 02  	bnez	a0, 0x800004d8 <_vsnprintf+0x3c4>
800004b0: 13 75 0e 10  	andi	a0, t3, 256
800004b4: 63 1e 05 20  	bnez	a0, 0x800006d0 <_vsnprintf+0x5bc>
800004b8: 13 75 0e 04  	andi	a0, t3, 64
800004bc: 63 1c 05 24  	bnez	a0, 0x80000714 <_vsnprintf+0x600>
800004c0: 03 27 04 00  	lw	a4, 0(s0)
800004c4: 13 75 0e 08  	andi	a0, t3, 128
800004c8: 63 08 05 24  	beqz	a0, 0x80000718 <_vsnprintf+0x604>
800004cc: 03 25 01 01  	lw	a0, 16(sp)
800004d0: 33 77 a7 00  	and	a4, a4, a0
800004d4: 6f 00 40 24  	j	0x80000718 <_vsnprintf+0x604>
800004d8: 23 2c 81 00  	sw	s0, 24(sp)
800004dc: 6f 00 c0 2e  	j	0x800007c8 <_vsnprintf+0x6b4>
800004e0: 03 25 04 00  	lw	a0, 0(s0)
800004e4: 13 04 44 00  	addi	s0, s0, 4
800004e8: 93 55 f5 41  	srai	a1, a0, 31
800004ec: 33 06 b5 00  	add	a2, a0, a1
800004f0: 33 47 b6 00  	xor	a4, a2, a1
800004f4: 93 57 f5 01  	srli	a5, a0, 31
800004f8: 13 05 09 00  	mv	a0, s2
800004fc: 93 05 0a 00  	mv	a1, s4
80000500: 13 86 09 00  	mv	a2, s3
80000504: 93 86 0a 00  	mv	a3, s5
80000508: 6f 00 40 1e  	j	0x800006ec <_vsnprintf+0x5d8>
8000050c: 13 7b 2e 00  	andi	s6, t3, 2
80000510: 93 04 10 00  	addi	s1, zero, 1
80000514: 63 12 0b 04  	bnez	s6, 0x80000558 <_vsnprintf+0x444>
80000518: 93 04 20 00  	addi	s1, zero, 2
8000051c: 63 ee 9b 02  	bltu	s7, s1, 0x80000558 <_vsnprintf+0x444>
80000520: 23 2c 81 00  	sw	s0, 24(sp)
80000524: 13 04 00 00  	mv	s0, zero
80000528: 93 84 1b 00  	addi	s1, s7, 1
8000052c: 93 8c fb ff  	addi	s9, s7, -1
80000530: 33 86 89 00  	add	a2, s3, s0
80000534: 13 05 00 02  	addi	a0, zero, 32
80000538: 93 05 0a 00  	mv	a1, s4
8000053c: 93 86 0a 00  	mv	a3, s5
80000540: e7 00 09 00  	jalr	s2
80000544: 13 04 14 00  	addi	s0, s0, 1
80000548: e3 94 8c fe  	bne	s9, s0, 0x80000530 <_vsnprintf+0x41c>
8000054c: b3 89 89 00  	add	s3, s3, s0
80000550: 93 0c 50 02  	addi	s9, zero, 37
80000554: 03 24 81 01  	lw	s0, 24(sp)
80000558: 13 86 09 00  	mv	a2, s3
8000055c: 03 45 04 00  	lbu	a0, 0(s0)
80000560: 93 05 04 00  	mv	a1, s0
80000564: 13 34 1b 00  	seqz	s0, s6
80000568: 13 8b 45 00  	addi	s6, a1, 4
8000056c: 93 89 19 00  	addi	s3, s3, 1
80000570: 93 05 0a 00  	mv	a1, s4
80000574: 93 86 0a 00  	mv	a3, s5
80000578: e7 00 09 00  	jalr	s2
8000057c: 33 b5 74 01  	sltu	a0, s1, s7
80000580: 13 45 15 00  	xori	a0, a0, 1
80000584: 33 65 a4 00  	or	a0, s0, a0
80000588: 63 14 05 02  	bnez	a0, 0x800005b0 <_vsnprintf+0x49c>
8000058c: 33 84 9b 40  	sub	s0, s7, s1
80000590: 13 86 09 00  	mv	a2, s3
80000594: 93 89 19 00  	addi	s3, s3, 1
80000598: 13 05 00 02  	addi	a0, zero, 32
8000059c: 93 05 0a 00  	mv	a1, s4
800005a0: 93 86 0a 00  	mv	a3, s5
800005a4: e7 00 09 00  	jalr	s2
800005a8: 13 04 f4 ff  	addi	s0, s0, -1
800005ac: e3 12 04 fe  	bnez	s0, 0x80000590 <_vsnprintf+0x47c>
800005b0: 23 2c 61 01  	sw	s6, 24(sp)
800005b4: 6f 00 40 21  	j	0x800007c8 <_vsnprintf+0x6b4>
800005b8: 03 27 04 00  	lw	a4, 0(s0)
800005bc: 13 6e 1e 02  	ori	t3, t3, 33
800005c0: 13 04 44 00  	addi	s0, s0, 4
800005c4: 13 08 00 01  	addi	a6, zero, 16
800005c8: 93 03 80 00  	addi	t2, zero, 8
800005cc: 13 05 09 00  	mv	a0, s2
800005d0: 93 05 0a 00  	mv	a1, s4
800005d4: 13 86 09 00  	mv	a2, s3
800005d8: 93 86 0a 00  	mv	a3, s5
800005dc: 93 07 00 00  	mv	a5, zero
800005e0: 93 08 0b 00  	mv	a7, s6
800005e4: 6f 00 00 11  	j	0x800006f4 <_vsnprintf+0x5e0>
800005e8: 83 2c 04 00  	lw	s9, 0(s0)
800005ec: 03 c5 0c 00  	lbu	a0, 0(s9)
800005f0: 13 86 0c 00  	mv	a2, s9
800005f4: 63 0c 05 02  	beqz	a0, 0x8000062c <_vsnprintf+0x518>
800005f8: 93 05 f0 ff  	addi	a1, zero, -1
800005fc: 63 04 0b 00  	beqz	s6, 0x80000604 <_vsnprintf+0x4f0>
80000600: 93 05 0b 00  	mv	a1, s6
80000604: 93 85 f5 ff  	addi	a1, a1, -1
80000608: 93 86 0c 00  	mv	a3, s9
8000060c: 03 c7 16 00  	lbu	a4, 1(a3)
80000610: 13 86 16 00  	addi	a2, a3, 1
80000614: b3 36 e0 00  	snez	a3, a4
80000618: 33 37 b0 00  	snez	a4, a1
8000061c: 33 77 d7 00  	and	a4, a4, a3
80000620: 93 85 f5 ff  	addi	a1, a1, -1
80000624: 93 06 06 00  	mv	a3, a2
80000628: e3 12 07 fe  	bnez	a4, 0x8000060c <_vsnprintf+0x4f8>
8000062c: b3 05 96 41  	sub	a1, a2, s9
80000630: 13 76 0e 40  	andi	a2, t3, 1024
80000634: 93 36 16 00  	seqz	a3, a2
80000638: 33 b6 65 01  	sltu	a2, a1, s6
8000063c: 23 2a d1 00  	sw	a3, 20(sp)
80000640: 33 e6 c6 00  	or	a2, a3, a2
80000644: 63 14 06 00  	bnez	a2, 0x8000064c <_vsnprintf+0x538>
80000648: 93 05 0b 00  	mv	a1, s6
8000064c: 13 76 2e 00  	andi	a2, t3, 2
80000650: 23 26 c1 00  	sw	a2, 12(sp)
80000654: 63 1a 06 0a  	bnez	a2, 0x80000708 <_vsnprintf+0x5f4>
80000658: 63 fa 75 0f  	bgeu	a1, s7, 0x8000074c <_vsnprintf+0x638>
8000065c: 23 2c 81 00  	sw	s0, 24(sp)
80000660: 13 04 00 00  	mv	s0, zero
80000664: 13 85 1b 00  	addi	a0, s7, 1
80000668: 23 24 a1 00  	sw	a0, 8(sp)
8000066c: b3 84 bb 40  	sub	s1, s7, a1
80000670: 33 86 89 00  	add	a2, s3, s0
80000674: 13 05 00 02  	addi	a0, zero, 32
80000678: 93 05 0a 00  	mv	a1, s4
8000067c: 93 86 0a 00  	mv	a3, s5
80000680: e7 00 09 00  	jalr	s2
80000684: 13 04 14 00  	addi	s0, s0, 1
80000688: e3 94 84 fe  	bne	s1, s0, 0x80000670 <_vsnprintf+0x55c>
8000068c: 03 c5 0c 00  	lbu	a0, 0(s9)
80000690: b3 89 89 00  	add	s3, s3, s0
80000694: 03 24 81 01  	lw	s0, 24(sp)
80000698: 63 10 05 0c  	bnez	a0, 0x80000758 <_vsnprintf+0x644>
8000069c: 6f 00 c0 0f  	j	0x80000798 <_vsnprintf+0x684>
800006a0: 03 45 04 00  	lbu	a0, 0(s0)
800006a4: 13 04 44 00  	addi	s0, s0, 4
800006a8: 23 2c 81 00  	sw	s0, 24(sp)
800006ac: 93 55 f5 41  	srai	a1, a0, 31
800006b0: 33 06 b5 00  	add	a2, a0, a1
800006b4: 33 47 b6 00  	xor	a4, a2, a1
800006b8: 93 57 f5 01  	srli	a5, a0, 31
800006bc: 13 05 09 00  	mv	a0, s2
800006c0: 93 05 0a 00  	mv	a1, s4
800006c4: 13 86 09 00  	mv	a2, s3
800006c8: 93 86 0a 00  	mv	a3, s5
800006cc: 6f 00 80 06  	j	0x80000734 <_vsnprintf+0x620>
800006d0: 03 27 04 00  	lw	a4, 0(s0)
800006d4: 13 04 44 00  	addi	s0, s0, 4
800006d8: 13 05 09 00  	mv	a0, s2
800006dc: 93 05 0a 00  	mv	a1, s4
800006e0: 13 86 09 00  	mv	a2, s3
800006e4: 93 86 0a 00  	mv	a3, s5
800006e8: 93 07 00 00  	mv	a5, zero
800006ec: 93 08 0b 00  	mv	a7, s6
800006f0: 93 83 0b 00  	mv	t2, s7
800006f4: 97 00 00 00  	auipc	ra, 0
800006f8: e7 80 c0 2d  	jalr	732(ra)
800006fc: 93 09 05 00  	mv	s3, a0
80000700: 23 2c 81 00  	sw	s0, 24(sp)
80000704: 6f 00 40 0c  	j	0x800007c8 <_vsnprintf+0x6b4>
80000708: 23 24 b1 00  	sw	a1, 8(sp)
8000070c: 63 16 05 04  	bnez	a0, 0x80000758 <_vsnprintf+0x644>
80000710: 6f 00 80 08  	j	0x80000798 <_vsnprintf+0x684>
80000714: 03 47 04 00  	lbu	a4, 0(s0)
80000718: 13 04 44 00  	addi	s0, s0, 4
8000071c: 23 2c 81 00  	sw	s0, 24(sp)
80000720: 13 05 09 00  	mv	a0, s2
80000724: 93 05 0a 00  	mv	a1, s4
80000728: 13 86 09 00  	mv	a2, s3
8000072c: 93 86 0a 00  	mv	a3, s5
80000730: 93 07 00 00  	mv	a5, zero
80000734: 93 08 0b 00  	mv	a7, s6
80000738: 93 83 0b 00  	mv	t2, s7
8000073c: 97 00 00 00  	auipc	ra, 0
80000740: e7 80 40 29  	jalr	660(ra)
80000744: 93 09 05 00  	mv	s3, a0
80000748: 6f 00 00 08  	j	0x800007c8 <_vsnprintf+0x6b4>
8000074c: 93 85 15 00  	addi	a1, a1, 1
80000750: 23 24 b1 00  	sw	a1, 8(sp)
80000754: 63 02 05 04  	beqz	a0, 0x80000798 <_vsnprintf+0x684>
80000758: 93 8c 1c 00  	addi	s9, s9, 1
8000075c: 6f 00 00 03  	j	0x8000078c <_vsnprintf+0x678>
80000760: 13 0b fb ff  	addi	s6, s6, -1
80000764: 93 84 19 00  	addi	s1, s3, 1
80000768: 13 75 f5 0f  	andi	a0, a0, 255
8000076c: 93 05 0a 00  	mv	a1, s4
80000770: 13 86 09 00  	mv	a2, s3
80000774: 93 86 0a 00  	mv	a3, s5
80000778: e7 00 09 00  	jalr	s2
8000077c: 03 c5 0c 00  	lbu	a0, 0(s9)
80000780: 93 8c 1c 00  	addi	s9, s9, 1
80000784: 93 89 04 00  	mv	s3, s1
80000788: 63 0a 05 00  	beqz	a0, 0x8000079c <_vsnprintf+0x688>
8000078c: 83 25 41 01  	lw	a1, 20(sp)
80000790: e3 9a 05 fc  	bnez	a1, 0x80000764 <_vsnprintf+0x650>
80000794: e3 16 0b fc  	bnez	s6, 0x80000760 <_vsnprintf+0x64c>
80000798: 93 84 09 00  	mv	s1, s3
8000079c: 03 25 c1 00  	lw	a0, 12(sp)
800007a0: 13 35 15 00  	seqz	a0, a0
800007a4: 03 26 81 00  	lw	a2, 8(sp)
800007a8: b3 35 76 01  	sltu	a1, a2, s7
800007ac: 93 c5 15 00  	xori	a1, a1, 1
800007b0: 33 65 b5 00  	or	a0, a0, a1
800007b4: 13 04 44 00  	addi	s0, s0, 4
800007b8: 23 2c 81 00  	sw	s0, 24(sp)
800007bc: 63 0c 05 00  	beqz	a0, 0x800007d4 <_vsnprintf+0x6c0>
800007c0: 93 89 04 00  	mv	s3, s1
800007c4: 93 0c 50 02  	addi	s9, zero, 37
800007c8: 13 0b 90 00  	addi	s6, zero, 9
800007cc: 13 84 1d 00  	addi	s0, s11, 1
800007d0: 6f f0 1f 9c  	j	0x80000190 <_vsnprintf+0x7c>
800007d4: 33 84 cb 40  	sub	s0, s7, a2
800007d8: 93 0c 50 02  	addi	s9, zero, 37
800007dc: 13 0b 90 00  	addi	s6, zero, 9
800007e0: 13 86 04 00  	mv	a2, s1
800007e4: 93 84 14 00  	addi	s1, s1, 1
800007e8: 13 05 00 02  	addi	a0, zero, 32
800007ec: 93 05 0a 00  	mv	a1, s4
800007f0: 93 86 0a 00  	mv	a3, s5
800007f4: e7 00 09 00  	jalr	s2
800007f8: 13 04 f4 ff  	addi	s0, s0, -1
800007fc: e3 12 04 fe  	bnez	s0, 0x800007e0 <_vsnprintf+0x6cc>
80000800: 93 89 04 00  	mv	s3, s1
80000804: 13 84 1d 00  	addi	s0, s11, 1
80000808: 6f f0 9f 98  	j	0x80000190 <_vsnprintf+0x7c>
8000080c: 13 86 09 00  	mv	a2, s3
80000810: 63 e4 59 01  	bltu	s3, s5, 0x80000818 <_vsnprintf+0x704>
80000814: 13 86 fa ff  	addi	a2, s5, -1
80000818: 13 05 00 00  	mv	a0, zero
8000081c: 93 05 0a 00  	mv	a1, s4
80000820: 93 86 0a 00  	mv	a3, s5
80000824: e7 00 09 00  	jalr	s2
80000828: 13 85 09 00  	mv	a0, s3
8000082c: 83 2d c1 01  	lw	s11, 28(sp)
80000830: 03 2d 01 02  	lw	s10, 32(sp)
80000834: 83 2c 41 02  	lw	s9, 36(sp)
80000838: 03 2c 81 02  	lw	s8, 40(sp)
8000083c: 83 2b c1 02  	lw	s7, 44(sp)
80000840: 03 2b 01 03  	lw	s6, 48(sp)
80000844: 83 2a 41 03  	lw	s5, 52(sp)
80000848: 03 2a 81 03  	lw	s4, 56(sp)
8000084c: 83 29 c1 03  	lw	s3, 60(sp)
80000850: 03 29 01 04  	lw	s2, 64(sp)
80000854: 83 24 41 04  	lw	s1, 68(sp)
80000858: 03 24 81 04  	lw	s0, 72(sp)
8000085c: 83 20 c1 04  	lw	ra, 76(sp)
80000860: 13 01 01 05  	addi	sp, sp, 80
80000864: 67 80 00 00  	ret

80000868 <_out_char>:
80000868: 63 06 05 00  	beqz	a0, 0x80000874 <_out_char+0xc>
8000086c: 17 03 00 00  	auipc	t1, 0
80000870: 67 00 03 76  	jr	1888(t1)
80000874: 67 80 00 00  	ret

80000878 <sprintf_>:
80000878: 13 01 01 fe  	addi	sp, sp, -32
8000087c: 23 22 11 00  	sw	ra, 4(sp)
80000880: 93 82 05 00  	mv	t0, a1
80000884: 93 05 05 00  	mv	a1, a0
80000888: 23 2e 11 01  	sw	a7, 28(sp)
8000088c: 23 2c 01 01  	sw	a6, 24(sp)
80000890: 23 2a f1 00  	sw	a5, 20(sp)
80000894: 23 28 e1 00  	sw	a4, 16(sp)
80000898: 23 26 d1 00  	sw	a3, 12(sp)
8000089c: 23 24 c1 00  	sw	a2, 8(sp)
800008a0: 13 05 81 00  	addi	a0, sp, 8
800008a4: 23 20 a1 00  	sw	a0, 0(sp)
800008a8: 17 05 00 00  	auipc	a0, 0
800008ac: 13 05 85 02  	addi	a0, a0, 40
800008b0: 13 06 f0 ff  	addi	a2, zero, -1
800008b4: 13 07 81 00  	addi	a4, sp, 8
800008b8: 93 86 02 00  	mv	a3, t0
800008bc: 97 00 00 00  	auipc	ra, 0
800008c0: e7 80 80 85  	jalr	-1960(ra)
800008c4: 83 20 41 00  	lw	ra, 4(sp)
800008c8: 13 01 01 02  	addi	sp, sp, 32
800008cc: 67 80 00 00  	ret

800008d0 <_out_buffer>:
800008d0: 63 76 d6 00  	bgeu	a2, a3, 0x800008dc <_out_buffer+0xc>
800008d4: b3 85 c5 00  	add	a1, a1, a2
800008d8: 23 80 a5 00  	sb	a0, 0(a1)
800008dc: 67 80 00 00  	ret

800008e0 <snprintf_>:
800008e0: 13 01 01 fe  	addi	sp, sp, -32
800008e4: 23 22 11 00  	sw	ra, 4(sp)
800008e8: 93 02 06 00  	mv	t0, a2
800008ec: 13 86 05 00  	mv	a2, a1
800008f0: 93 05 05 00  	mv	a1, a0
800008f4: 23 2e 11 01  	sw	a7, 28(sp)
800008f8: 23 2c 01 01  	sw	a6, 24(sp)
800008fc: 23 2a f1 00  	sw	a5, 20(sp)
80000900: 23 28 e1 00  	sw	a4, 16(sp)
80000904: 23 26 d1 00  	sw	a3, 12(sp)
80000908: 13 05 c1 00  	addi	a0, sp, 12
8000090c: 23 20 a1 00  	sw	a0, 0(sp)
80000910: 17 05 00 00  	auipc	a0, 0
80000914: 13 05 05 fc  	addi	a0, a0, -64
80000918: 13 07 c1 00  	addi	a4, sp, 12
8000091c: 93 86 02 00  	mv	a3, t0
80000920: 97 f0 ff ff  	auipc	ra, 1048575
80000924: e7 80 40 7f  	jalr	2036(ra)
80000928: 83 20 41 00  	lw	ra, 4(sp)
8000092c: 13 01 01 02  	addi	sp, sp, 32
80000930: 67 80 00 00  	ret

80000934 <vsnprintf_>:
80000934: 17 07 00 00  	auipc	a4, 0
80000938: 13 07 c7 f9  	addi	a4, a4, -100
8000093c: 93 87 06 00  	mv	a5, a3
80000940: 93 06 06 00  	mv	a3, a2
80000944: 13 86 05 00  	mv	a2, a1
80000948: 93 05 05 00  	mv	a1, a0
8000094c: 13 05 07 00  	mv	a0, a4
80000950: 13 87 07 00  	mv	a4, a5
80000954: 17 f3 ff ff  	auipc	t1, 1048575
80000958: 67 00 03 7c  	jr	1984(t1)

8000095c <fctprintf>:
8000095c: 13 01 01 fd  	addi	sp, sp, -48
80000960: 23 2a 11 00  	sw	ra, 20(sp)
80000964: 93 02 06 00  	mv	t0, a2
80000968: 23 26 11 03  	sw	a7, 44(sp)
8000096c: 23 24 01 03  	sw	a6, 40(sp)
80000970: 23 22 f1 02  	sw	a5, 36(sp)
80000974: 23 20 e1 02  	sw	a4, 32(sp)
80000978: 23 2e d1 00  	sw	a3, 28(sp)
8000097c: 13 06 c1 01  	addi	a2, sp, 28
80000980: 23 28 c1 00  	sw	a2, 16(sp)
80000984: 23 24 a1 00  	sw	a0, 8(sp)
80000988: 23 26 b1 00  	sw	a1, 12(sp)
8000098c: 17 05 00 00  	auipc	a0, 0
80000990: 13 05 c5 02  	addi	a0, a0, 44
80000994: 93 05 81 00  	addi	a1, sp, 8
80000998: 13 06 f0 ff  	addi	a2, zero, -1
8000099c: 13 07 c1 01  	addi	a4, sp, 28
800009a0: 93 86 02 00  	mv	a3, t0
800009a4: 97 f0 ff ff  	auipc	ra, 1048575
800009a8: e7 80 00 77  	jalr	1904(ra)
800009ac: 83 20 41 01  	lw	ra, 20(sp)
800009b0: 13 01 01 03  	addi	sp, sp, 48
800009b4: 67 80 00 00  	ret

800009b8 <_out_fct>:
800009b8: 63 08 05 00  	beqz	a0, 0x800009c8 <_out_fct+0x10>
800009bc: 83 a7 05 00  	lw	a5, 0(a1)
800009c0: 83 a5 45 00  	lw	a1, 4(a1)
800009c4: 67 80 07 00  	jr	a5
800009c8: 67 80 00 00  	ret

800009cc <_out_null>:
800009cc: 67 80 00 00  	ret

800009d0 <_ntoa_long>:
800009d0: 13 01 01 fa  	addi	sp, sp, -96
800009d4: 23 2e 11 04  	sw	ra, 92(sp)
800009d8: 23 2c 81 04  	sw	s0, 88(sp)
800009dc: 23 2a 91 04  	sw	s1, 84(sp)
800009e0: 23 28 21 05  	sw	s2, 80(sp)
800009e4: 23 26 31 05  	sw	s3, 76(sp)
800009e8: 23 24 41 05  	sw	s4, 72(sp)
800009ec: 23 22 51 05  	sw	s5, 68(sp)
800009f0: 23 20 61 05  	sw	s6, 64(sp)
800009f4: 23 2e 71 03  	sw	s7, 60(sp)
800009f8: 23 2c 81 03  	sw	s8, 56(sp)
800009fc: 23 2a 91 03  	sw	s9, 52(sp)
80000a00: 23 28 a1 03  	sw	s10, 48(sp)
80000a04: 23 26 b1 03  	sw	s11, 44(sp)
80000a08: 93 0a 0e 00  	mv	s5, t3
80000a0c: 13 89 03 00  	mv	s2, t2
80000a10: 13 04 08 00  	mv	s0, a6
80000a14: 93 89 06 00  	mv	s3, a3
80000a18: 13 0a 06 00  	mv	s4, a2
80000a1c: 93 8b 05 00  	mv	s7, a1
80000a20: 93 0c 05 00  	mv	s9, a0
80000a24: 33 35 e0 00  	snez	a0, a4
80000a28: 63 14 07 00  	bnez	a4, 0x80000a30 <_ntoa_long+0x60>
80000a2c: 93 fa fa fe  	andi	s5, s5, -17
80000a30: 93 f5 0a 40  	andi	a1, s5, 1024
80000a34: 13 bb 15 00  	seqz	s6, a1
80000a38: 33 65 65 01  	or	a0, a0, s6
80000a3c: 13 0d 00 00  	mv	s10, zero
80000a40: 63 06 05 06  	beqz	a0, 0x80000aac <_ntoa_long+0xdc>
80000a44: 93 06 00 00  	mv	a3, zero
80000a48: 13 f5 0a 02  	andi	a0, s5, 32
80000a4c: 13 45 15 06  	xori	a0, a0, 97
80000a50: 93 02 65 0f  	addi	t0, a0, 246
80000a54: 13 08 a0 00  	addi	a6, zero, 10
80000a58: 13 03 c1 00  	addi	t1, sp, 12
80000a5c: 6f 00 00 03  	j	0x80000a8c <_ntoa_long+0xbc>
80000a60: 33 85 a4 00  	add	a0, s1, a0
80000a64: 13 8d 16 00  	addi	s10, a3, 1
80000a68: 33 06 d3 00  	add	a2, t1, a3
80000a6c: 33 37 87 00  	sltu	a4, a4, s0
80000a70: 13 47 17 00  	xori	a4, a4, 1
80000a74: 93 b6 f6 01  	sltiu	a3, a3, 31
80000a78: b3 74 d7 00  	and	s1, a4, a3
80000a7c: 23 00 a6 00  	sb	a0, 0(a2)
80000a80: 93 06 0d 00  	mv	a3, s10
80000a84: 13 87 05 00  	mv	a4, a1
80000a88: 63 82 04 02  	beqz	s1, 0x80000aac <_ntoa_long+0xdc>
80000a8c: b3 55 87 02  	divu	a1, a4, s0
80000a90: 33 85 85 02  	mul	a0, a1, s0
80000a94: b3 04 a7 40  	sub	s1, a4, a0
80000a98: 13 f6 e4 0f  	andi	a2, s1, 254
80000a9c: 13 05 00 03  	addi	a0, zero, 48
80000aa0: e3 60 06 fd  	bltu	a2, a6, 0x80000a60 <_ntoa_long+0x90>
80000aa4: 13 85 02 00  	mv	a0, t0
80000aa8: 6f f0 9f fb  	j	0x80000a60 <_ntoa_long+0x90>
80000aac: 93 fd 2a 00  	andi	s11, s5, 2
80000ab0: 63 9a 0d 0e  	bnez	s11, 0x80000ba4 <_ntoa_long+0x1d4>
80000ab4: 13 fc 1a 00  	andi	s8, s5, 1
80000ab8: 63 0e 09 00  	beqz	s2, 0x80000ad4 <_ntoa_long+0x104>
80000abc: 63 0e 0c 00  	beqz	s8, 0x80000ad8 <_ntoa_long+0x108>
80000ac0: 13 f5 ca 00  	andi	a0, s5, 12
80000ac4: 33 35 a0 00  	snez	a0, a0
80000ac8: 33 65 f5 00  	or	a0, a0, a5
80000acc: 33 09 a9 40  	sub	s2, s2, a0
80000ad0: 6f 00 80 00  	j	0x80000ad8 <_ntoa_long+0x108>
80000ad4: 13 09 00 00  	mv	s2, zero
80000ad8: 33 35 1d 01  	sltu	a0, s10, a7
80000adc: 93 45 15 00  	xori	a1, a0, 1
80000ae0: 13 05 f0 01  	addi	a0, zero, 31
80000ae4: 33 36 a5 01  	sltu	a2, a0, s10
80000ae8: b3 e5 c5 00  	or	a1, a1, a2
80000aec: 63 9c 05 04  	bnez	a1, 0x80000b44 <_ntoa_long+0x174>
80000af0: 23 22 41 01  	sw	s4, 4(sp)
80000af4: 13 8a 0d 00  	mv	s4, s11
80000af8: 93 8d 07 00  	mv	s11, a5
80000afc: 93 06 c1 00  	addi	a3, sp, 12
80000b00: 93 45 fd ff  	not	a1, s10
80000b04: 23 24 11 01  	sw	a7, 8(sp)
80000b08: b3 85 15 01  	add	a1, a1, a7
80000b0c: 33 06 a5 41  	sub	a2, a0, s10
80000b10: 33 85 a6 01  	add	a0, a3, s10
80000b14: 63 e4 c5 00  	bltu	a1, a2, 0x80000b1c <_ntoa_long+0x14c>
80000b18: 93 05 06 00  	mv	a1, a2
80000b1c: 93 84 15 00  	addi	s1, a1, 1
80000b20: 93 05 00 03  	addi	a1, zero, 48
80000b24: 13 86 04 00  	mv	a2, s1
80000b28: 97 00 00 00  	auipc	ra, 0
80000b2c: e7 80 40 2e  	jalr	740(ra)
80000b30: 33 8d a4 01  	add	s10, s1, s10
80000b34: 93 87 0d 00  	mv	a5, s11
80000b38: 93 0d 0a 00  	mv	s11, s4
80000b3c: 03 2a 41 00  	lw	s4, 4(sp)
80000b40: 83 28 81 00  	lw	a7, 8(sp)
80000b44: 63 00 0c 06  	beqz	s8, 0x80000ba4 <_ntoa_long+0x1d4>
80000b48: 33 35 2d 01  	sltu	a0, s10, s2
80000b4c: 93 45 15 00  	xori	a1, a0, 1
80000b50: 13 05 f0 01  	addi	a0, zero, 31
80000b54: 33 36 a5 01  	sltu	a2, a0, s10
80000b58: b3 e5 c5 00  	or	a1, a1, a2
80000b5c: 63 94 05 04  	bnez	a1, 0x80000ba4 <_ntoa_long+0x1d4>
80000b60: 23 24 11 01  	sw	a7, 8(sp)
80000b64: 13 8c 07 00  	mv	s8, a5
80000b68: 93 06 c1 00  	addi	a3, sp, 12
80000b6c: 93 45 fd ff  	not	a1, s10
80000b70: b3 05 b9 00  	add	a1, s2, a1
80000b74: 33 06 a5 41  	sub	a2, a0, s10
80000b78: 33 85 a6 01  	add	a0, a3, s10
80000b7c: 63 e4 c5 00  	bltu	a1, a2, 0x80000b84 <_ntoa_long+0x1b4>
80000b80: 93 05 06 00  	mv	a1, a2
80000b84: 93 84 15 00  	addi	s1, a1, 1
80000b88: 93 05 00 03  	addi	a1, zero, 48
80000b8c: 13 86 04 00  	mv	a2, s1
80000b90: 97 00 00 00  	auipc	ra, 0
80000b94: e7 80 c0 27  	jalr	636(ra)
80000b98: 33 8d a4 01  	add	s10, s1, s10
80000b9c: 93 07 0c 00  	mv	a5, s8
80000ba0: 83 28 81 00  	lw	a7, 8(sp)
80000ba4: 13 f5 0a 01  	andi	a0, s5, 16
80000ba8: 63 04 05 0c  	beqz	a0, 0x80000c70 <_ntoa_long+0x2a0>
80000bac: 13 35 1d 00  	seqz	a0, s10
80000bb0: 93 45 1b 00  	xori	a1, s6, 1
80000bb4: 33 e5 a5 00  	or	a0, a1, a0
80000bb8: 63 1e 05 02  	bnez	a0, 0x80000bf4 <_ntoa_long+0x224>
80000bbc: 33 45 1d 01  	xor	a0, s10, a7
80000bc0: 33 35 a0 00  	snez	a0, a0
80000bc4: b3 45 2d 01  	xor	a1, s10, s2
80000bc8: b3 35 b0 00  	snez	a1, a1
80000bcc: 33 75 b5 00  	and	a0, a0, a1
80000bd0: 63 12 05 02  	bnez	a0, 0x80000bf4 <_ntoa_long+0x224>
80000bd4: 13 05 fd ff  	addi	a0, s10, -1
80000bd8: b3 35 a0 00  	snez	a1, a0
80000bdc: 13 06 04 ff  	addi	a2, s0, -16
80000be0: 13 36 16 00  	seqz	a2, a2
80000be4: b3 75 b6 00  	and	a1, a2, a1
80000be8: 63 84 05 00  	beqz	a1, 0x80000bf0 <_ntoa_long+0x220>
80000bec: 13 05 ed ff  	addi	a0, s10, -2
80000bf0: 13 0d 05 00  	mv	s10, a0
80000bf4: 13 05 00 01  	addi	a0, zero, 16
80000bf8: 63 18 a4 02  	bne	s0, a0, 0x80000c28 <_ntoa_long+0x258>
80000bfc: 93 f5 0a 02  	andi	a1, s5, 32
80000c00: 13 b5 15 00  	seqz	a0, a1
80000c04: 13 36 0d 02  	sltiu	a2, s10, 32
80000c08: b3 76 c5 00  	and	a3, a0, a2
80000c0c: 13 05 80 07  	addi	a0, zero, 120
80000c10: 63 9a 06 02  	bnez	a3, 0x80000c44 <_ntoa_long+0x274>
80000c14: 33 35 b0 00  	snez	a0, a1
80000c18: b3 75 c5 00  	and	a1, a0, a2
80000c1c: 13 05 80 05  	addi	a0, zero, 88
80000c20: 63 92 05 02  	bnez	a1, 0x80000c44 <_ntoa_long+0x274>
80000c24: 6f 00 00 03  	j	0x80000c54 <_ntoa_long+0x284>
80000c28: 13 05 e4 ff  	addi	a0, s0, -2
80000c2c: 33 35 a0 00  	snez	a0, a0
80000c30: 93 05 f0 01  	addi	a1, zero, 31
80000c34: b3 b5 a5 01  	sltu	a1, a1, s10
80000c38: b3 65 b5 00  	or	a1, a0, a1
80000c3c: 13 05 20 06  	addi	a0, zero, 98
80000c40: 63 9a 05 00  	bnez	a1, 0x80000c54 <_ntoa_long+0x284>
80000c44: 93 05 c1 00  	addi	a1, sp, 12
80000c48: b3 85 a5 01  	add	a1, a1, s10
80000c4c: 13 0d 1d 00  	addi	s10, s10, 1
80000c50: 23 80 a5 00  	sb	a0, 0(a1)
80000c54: 13 05 f0 01  	addi	a0, zero, 31
80000c58: 63 68 a5 05  	bltu	a0, s10, 0x80000ca8 <_ntoa_long+0x2d8>
80000c5c: 13 05 c1 00  	addi	a0, sp, 12
80000c60: 33 05 a5 01  	add	a0, a0, s10
80000c64: 13 0d 1d 00  	addi	s10, s10, 1
80000c68: 93 05 00 03  	addi	a1, zero, 48
80000c6c: 23 00 b5 00  	sb	a1, 0(a0)
80000c70: 13 05 f0 01  	addi	a0, zero, 31
80000c74: 63 6a a5 03  	bltu	a0, s10, 0x80000ca8 <_ntoa_long+0x2d8>
80000c78: 13 05 d0 02  	addi	a0, zero, 45
80000c7c: 63 9e 07 00  	bnez	a5, 0x80000c98 <_ntoa_long+0x2c8>
80000c80: 93 f5 4a 00  	andi	a1, s5, 4
80000c84: 13 05 b0 02  	addi	a0, zero, 43
80000c88: 63 98 05 00  	bnez	a1, 0x80000c98 <_ntoa_long+0x2c8>
80000c8c: 93 f5 8a 00  	andi	a1, s5, 8
80000c90: 13 05 00 02  	addi	a0, zero, 32
80000c94: 63 8a 05 00  	beqz	a1, 0x80000ca8 <_ntoa_long+0x2d8>
80000c98: 93 05 c1 00  	addi	a1, sp, 12
80000c9c: b3 85 a5 01  	add	a1, a1, s10
80000ca0: 13 0d 1d 00  	addi	s10, s10, 1
80000ca4: 23 80 a5 00  	sb	a0, 0(a1)
80000ca8: 13 f5 3a 00  	andi	a0, s5, 3
80000cac: 33 35 a0 00  	snez	a0, a0
80000cb0: b3 35 2d 01  	sltu	a1, s10, s2
80000cb4: 93 c5 15 00  	xori	a1, a1, 1
80000cb8: 33 65 b5 00  	or	a0, a0, a1
80000cbc: 13 04 0a 00  	mv	s0, s4
80000cc0: 63 16 05 02  	bnez	a0, 0x80000cec <_ntoa_long+0x31c>
80000cc4: b3 04 a9 41  	sub	s1, s2, s10
80000cc8: 13 06 0a 00  	mv	a2, s4
80000ccc: 13 04 16 00  	addi	s0, a2, 1
80000cd0: 13 05 00 02  	addi	a0, zero, 32
80000cd4: 93 85 0b 00  	mv	a1, s7
80000cd8: 93 86 09 00  	mv	a3, s3
80000cdc: e7 80 0c 00  	jalr	s9
80000ce0: 93 84 f4 ff  	addi	s1, s1, -1
80000ce4: 13 06 04 00  	mv	a2, s0
80000ce8: e3 92 04 fe  	bnez	s1, 0x80000ccc <_ntoa_long+0x2fc>
80000cec: 93 ba 1d 00  	seqz	s5, s11
80000cf0: 63 0a 0d 02  	beqz	s10, 0x80000d24 <_ntoa_long+0x354>
80000cf4: 13 0b b1 00  	addi	s6, sp, 11
80000cf8: 33 05 ab 01  	add	a0, s6, s10
80000cfc: 03 45 05 00  	lbu	a0, 0(a0)
80000d00: 93 04 14 00  	addi	s1, s0, 1
80000d04: 93 85 0b 00  	mv	a1, s7
80000d08: 13 06 04 00  	mv	a2, s0
80000d0c: 93 86 09 00  	mv	a3, s3
80000d10: e7 80 0c 00  	jalr	s9
80000d14: 13 0d fd ff  	addi	s10, s10, -1
80000d18: 13 84 04 00  	mv	s0, s1
80000d1c: e3 1e 0d fc  	bnez	s10, 0x80000cf8 <_ntoa_long+0x328>
80000d20: 6f 00 80 00  	j	0x80000d28 <_ntoa_long+0x358>
80000d24: 93 04 04 00  	mv	s1, s0
80000d28: 33 85 44 41  	sub	a0, s1, s4
80000d2c: 33 35 25 01  	sltu	a0, a0, s2
80000d30: 13 45 15 00  	xori	a0, a0, 1
80000d34: 33 e5 aa 00  	or	a0, s5, a0
80000d38: 63 06 05 00  	beqz	a0, 0x80000d44 <_ntoa_long+0x374>
80000d3c: 13 84 04 00  	mv	s0, s1
80000d40: 6f 00 c0 02  	j	0x80000d6c <_ntoa_long+0x39c>
80000d44: 33 0a 40 41  	neg	s4, s4
80000d48: 13 84 14 00  	addi	s0, s1, 1
80000d4c: 13 05 00 02  	addi	a0, zero, 32
80000d50: 93 85 0b 00  	mv	a1, s7
80000d54: 13 86 04 00  	mv	a2, s1
80000d58: 93 86 09 00  	mv	a3, s3
80000d5c: e7 80 0c 00  	jalr	s9
80000d60: 33 05 8a 00  	add	a0, s4, s0
80000d64: 93 04 04 00  	mv	s1, s0
80000d68: e3 60 25 ff  	bltu	a0, s2, 0x80000d48 <_ntoa_long+0x378>
80000d6c: 13 05 04 00  	mv	a0, s0
80000d70: 83 2d c1 02  	lw	s11, 44(sp)
80000d74: 03 2d 01 03  	lw	s10, 48(sp)
80000d78: 83 2c 41 03  	lw	s9, 52(sp)
80000d7c: 03 2c 81 03  	lw	s8, 56(sp)
80000d80: 83 2b c1 03  	lw	s7, 60(sp)
80000d84: 03 2b 01 04  	lw	s6, 64(sp)
80000d88: 83 2a 41 04  	lw	s5, 68(sp)
80000d8c: 03 2a 81 04  	lw	s4, 72(sp)
80000d90: 83 29 c1 04  	lw	s3, 76(sp)
80000d94: 03 29 01 05  	lw	s2, 80(sp)
80000d98: 83 24 41 05  	lw	s1, 84(sp)
80000d9c: 03 24 81 05  	lw	s0, 88(sp)
80000da0: 83 20 c1 05  	lw	ra, 92(sp)
80000da4: 13 01 01 06  	addi	sp, sp, 96
80000da8: 67 80 00 00  	ret

80000dac <memcpy>:
80000dac: b3 e6 a5 00  	or	a3, a1, a0
80000db0: b3 e6 c6 00  	or	a3, a3, a2
80000db4: 13 f7 36 00  	andi	a4, a3, 3
80000db8: b3 06 c5 00  	add	a3, a0, a2
80000dbc: 63 06 07 02  	beqz	a4, 0x80000de8 <memcpy+0x3c>
80000dc0: 63 74 d5 04  	bgeu	a0, a3, 0x80000e08 <memcpy+0x5c>
80000dc4: 93 06 05 00  	mv	a3, a0
80000dc8: 03 87 05 00  	lb	a4, 0(a1)
80000dcc: 93 85 15 00  	addi	a1, a1, 1
80000dd0: 93 87 16 00  	addi	a5, a3, 1
80000dd4: 13 06 f6 ff  	addi	a2, a2, -1
80000dd8: 23 80 e6 00  	sb	a4, 0(a3)
80000ddc: 93 86 07 00  	mv	a3, a5
80000de0: e3 14 06 fe  	bnez	a2, 0x80000dc8 <memcpy+0x1c>
80000de4: 6f 00 40 02  	j	0x80000e08 <memcpy+0x5c>
80000de8: 63 70 d5 02  	bgeu	a0, a3, 0x80000e08 <memcpy+0x5c>
80000dec: 13 06 05 00  	mv	a2, a0
80000df0: 03 a7 05 00  	lw	a4, 0(a1)
80000df4: 93 85 45 00  	addi	a1, a1, 4
80000df8: 93 07 46 00  	addi	a5, a2, 4
80000dfc: 23 20 e6 00  	sw	a4, 0(a2)
80000e00: 13 86 07 00  	mv	a2, a5
80000e04: e3 e6 d7 fe  	bltu	a5, a3, 0x80000df0 <memcpy+0x44>
80000e08: 67 80 00 00  	ret

80000e0c <memset>:
80000e0c: b3 66 c5 00  	or	a3, a0, a2
80000e10: 93 f6 36 00  	andi	a3, a3, 3
80000e14: 63 84 06 02  	beqz	a3, 0x80000e3c <memset+0x30>
80000e18: b3 06 c5 00  	add	a3, a0, a2
80000e1c: 63 76 d5 04  	bgeu	a0, a3, 0x80000e68 <memset+0x5c>
80000e20: 93 06 05 00  	mv	a3, a0
80000e24: 13 87 16 00  	addi	a4, a3, 1
80000e28: 13 06 f6 ff  	addi	a2, a2, -1
80000e2c: 23 80 b6 00  	sb	a1, 0(a3)
80000e30: 93 06 07 00  	mv	a3, a4
80000e34: e3 18 06 fe  	bnez	a2, 0x80000e24 <memset+0x18>
80000e38: 6f 00 00 03  	j	0x80000e68 <memset+0x5c>
80000e3c: 33 06 c5 00  	add	a2, a0, a2
80000e40: 63 74 c5 02  	bgeu	a0, a2, 0x80000e68 <memset+0x5c>
80000e44: 93 f5 f5 0f  	andi	a1, a1, 255
80000e48: b7 06 01 01  	lui	a3, 4112
80000e4c: 93 86 16 10  	addi	a3, a3, 257
80000e50: b3 85 d5 02  	mul	a1, a1, a3
80000e54: 93 06 05 00  	mv	a3, a0
80000e58: 13 87 46 00  	addi	a4, a3, 4
80000e5c: 23 a0 b6 00  	sw	a1, 0(a3)
80000e60: 93 06 07 00  	mv	a3, a4
80000e64: e3 6a c7 fe  	bltu	a4, a2, 0x80000e58 <memset+0x4c>
80000e68: 67 80 00 00  	ret

80000e6c <strlen>:
80000e6c: 93 05 00 00  	mv	a1, zero
80000e70: 33 06 b5 00  	add	a2, a0, a1
80000e74: 03 46 06 00  	lbu	a2, 0(a2)
80000e78: 93 85 15 00  	addi	a1, a1, 1
80000e7c: e3 1a 06 fe  	bnez	a2, 0x80000e70 <strlen+0x4>
80000e80: 13 85 f5 ff  	addi	a0, a1, -1
80000e84: 67 80 00 00  	ret

80000e88 <strcmp>:
80000e88: 03 46 05 00  	lbu	a2, 0(a0)
80000e8c: 83 c6 05 00  	lbu	a3, 0(a1)
80000e90: 13 05 15 00  	addi	a0, a0, 1
80000e94: 93 85 15 00  	addi	a1, a1, 1
80000e98: 33 37 c0 00  	snez	a4, a2
80000e9c: b3 47 d6 00  	xor	a5, a2, a3
80000ea0: 93 b7 17 00  	seqz	a5, a5
80000ea4: 33 77 f7 00  	and	a4, a4, a5
80000ea8: e3 10 07 fe  	bnez	a4, 0x80000e88 <strcmp>
80000eac: 33 05 d6 40  	sub	a0, a2, a3
80000eb0: 67 80 00 00  	ret

80000eb4 <memcmp>:
80000eb4: b3 e6 a5 00  	or	a3, a1, a0
80000eb8: 93 f6 36 00  	andi	a3, a3, 3
80000ebc: 63 90 06 04  	bnez	a3, 0x80000efc <memcmp+0x48>
80000ec0: 93 76 c6 ff  	andi	a3, a2, -4
80000ec4: 33 08 d5 00  	add	a6, a0, a3
80000ec8: 63 72 05 03  	bgeu	a0, a6, 0x80000eec <memcmp+0x38>
80000ecc: 93 06 05 00  	mv	a3, a0
80000ed0: 83 a7 06 00  	lw	a5, 0(a3)
80000ed4: 03 a7 05 00  	lw	a4, 0(a1)
80000ed8: 63 9c e7 00  	bne	a5, a4, 0x80000ef0 <memcmp+0x3c>
80000edc: 93 86 46 00  	addi	a3, a3, 4
80000ee0: 93 85 45 00  	addi	a1, a1, 4
80000ee4: e3 e6 06 ff  	bltu	a3, a6, 0x80000ed0 <memcmp+0x1c>
80000ee8: 6f 00 80 00  	j	0x80000ef0 <memcmp+0x3c>
80000eec: 93 06 05 00  	mv	a3, a0
80000ef0: 33 05 c5 00  	add	a0, a0, a2
80000ef4: 33 06 d5 40  	sub	a2, a0, a3
80000ef8: 13 85 06 00  	mv	a0, a3
80000efc: 63 02 06 02  	beqz	a2, 0x80000f20 <memcmp+0x6c>
80000f00: 83 46 05 00  	lbu	a3, 0(a0)
80000f04: 03 c7 05 00  	lbu	a4, 0(a1)
80000f08: 13 05 15 00  	addi	a0, a0, 1
80000f0c: 93 85 15 00  	addi	a1, a1, 1
80000f10: 13 06 f6 ff  	addi	a2, a2, -1
80000f14: e3 84 e6 fe  	beq	a3, a4, 0x80000efc <memcmp+0x48>
80000f18: 33 85 e6 40  	sub	a0, a3, a4
80000f1c: 67 80 00 00  	ret
80000f20: 13 05 00 00  	mv	a0, zero
80000f24: 67 80 00 00  	ret

80000f28 <strcpy>:
80000f28: 13 06 00 00  	mv	a2, zero
80000f2c: b3 86 c5 00  	add	a3, a1, a2
80000f30: 83 c6 06 00  	lbu	a3, 0(a3)
80000f34: 33 07 c5 00  	add	a4, a0, a2
80000f38: 23 00 d7 00  	sb	a3, 0(a4)
80000f3c: 13 06 16 00  	addi	a2, a2, 1
80000f40: e3 96 06 fe  	bnez	a3, 0x80000f2c <strcpy+0x4>
80000f44: 67 80 00 00  	ret

80000f48 <atol>:
80000f48: 13 06 15 00  	addi	a2, a0, 1
80000f4c: 13 05 00 02  	addi	a0, zero, 32
80000f50: 83 45 f6 ff  	lbu	a1, -1(a2)
80000f54: 63 98 a5 00  	bne	a1, a0, 0x80000f64 <atol+0x1c>
80000f58: 13 06 16 00  	addi	a2, a2, 1
80000f5c: 83 45 f6 ff  	lbu	a1, -1(a2)
80000f60: e3 8c a5 fe  	beq	a1, a0, 0x80000f58 <atol+0x10>
80000f64: 13 05 b0 02  	addi	a0, zero, 43
80000f68: 63 86 a5 00  	beq	a1, a0, 0x80000f74 <atol+0x2c>
80000f6c: 13 05 d0 02  	addi	a0, zero, 45
80000f70: 63 9e a5 00  	bne	a1, a0, 0x80000f8c <atol+0x44>
80000f74: 13 85 35 fd  	addi	a0, a1, -45
80000f78: 83 45 06 00  	lbu	a1, 0(a2)
80000f7c: 93 36 15 00  	seqz	a3, a0
80000f80: 13 05 00 00  	mv	a0, zero
80000f84: 63 9c 05 00  	bnez	a1, 0x80000f9c <atol+0x54>
80000f88: 6f 00 80 03  	j	0x80000fc0 <atol+0x78>
80000f8c: 93 06 00 00  	mv	a3, zero
80000f90: 13 06 f6 ff  	addi	a2, a2, -1
80000f94: 13 05 00 00  	mv	a0, zero
80000f98: 63 84 05 02  	beqz	a1, 0x80000fc0 <atol+0x78>
80000f9c: 13 06 16 00  	addi	a2, a2, 1
80000fa0: 13 07 a0 00  	addi	a4, zero, 10
80000fa4: 93 f7 f5 0f  	andi	a5, a1, 255
80000fa8: 83 45 06 00  	lbu	a1, 0(a2)
80000fac: 33 05 e5 02  	mul	a0, a0, a4
80000fb0: 33 05 f5 00  	add	a0, a0, a5
80000fb4: 13 05 05 fd  	addi	a0, a0, -48
80000fb8: 13 06 16 00  	addi	a2, a2, 1
80000fbc: e3 94 05 fe  	bnez	a1, 0x80000fa4 <atol+0x5c>
80000fc0: 63 84 06 00  	beqz	a3, 0x80000fc8 <atol+0x80>
80000fc4: 33 05 a0 40  	neg	a0, a0
80000fc8: 67 80 00 00  	ret

80000fcc <_putchar>:
80000fcc: 97 f5 ff 3f  	auipc	a1, 262143
80000fd0: 93 85 45 03  	addi	a1, a1, 52
80000fd4: 23 80 a5 00  	sb	a0, 0(a1)
80000fd8: 67 80 00 00  	ret
		...

Disassembly of section .rodata:

80001000 <.rodata>:
80001000: d8 01        	<unknown>
80001002: 00 80        	<unknown>
80001004: 34 02        	<unknown>
80001006: 00 80        	<unknown>
80001008: 34 02        	<unknown>
8000100a: 00 80        	<unknown>
8000100c: 04 02        	<unknown>
8000100e: 00 80        	<unknown>
80001010: 34 02        	<unknown>
80001012: 00 80        	<unknown>
80001014: 34 02        	<unknown>
80001016: 00 80        	<unknown>
80001018: 34 02        	<unknown>
8000101a: 00 80        	<unknown>
8000101c: 34 02        	<unknown>
8000101e: 00 80        	<unknown>
80001020: 34 02        	<unknown>
80001022: 00 80        	<unknown>
80001024: 34 02        	<unknown>
80001026: 00 80        	<unknown>
80001028: 34 02        	<unknown>
8000102a: 00 80        	<unknown>
8000102c: 10 02        	<unknown>
8000102e: 00 80        	<unknown>
80001030: 34 02        	<unknown>
80001032: 00 80        	<unknown>
80001034: 1c 02        	<unknown>
80001036: 00 80        	<unknown>
80001038: 34 02        	<unknown>
8000103a: 00 80        	<unknown>
8000103c: 34 02        	<unknown>
8000103e: 00 80        	<unknown>
80001040: 28 02        	<unknown>
80001042: 00 80        	<unknown>
80001044: 20 04        	<unknown>
80001046: 00 80        	<unknown>
80001048: 30 04        	<unknown>
8000104a: 00 80        	<unknown>
8000104c: 30 04        	<unknown>
8000104e: 00 80        	<unknown>
80001050: 30 04        	<unknown>
80001052: 00 80        	<unknown>
80001054: 30 04        	<unknown>
80001056: 00 80        	<unknown>
80001058: 30 04        	<unknown>
8000105a: 00 80        	<unknown>
8000105c: 30 04        	<unknown>
8000105e: 00 80        	<unknown>
80001060: 30 04        	<unknown>
80001062: 00 80        	<unknown>
80001064: 30 04        	<unknown>
80001066: 00 80        	<unknown>
80001068: 30 04        	<unknown>
8000106a: 00 80        	<unknown>
8000106c: 30 04        	<unknown>
8000106e: 00 80        	<unknown>
80001070: 30 04        	<unknown>
80001072: 00 80        	<unknown>
80001074: 30 04        	<unknown>
80001076: 00 80        	<unknown>
80001078: 30 04        	<unknown>
8000107a: 00 80        	<unknown>
8000107c: 30 04        	<unknown>
8000107e: 00 80        	<unknown>
80001080: 30 04        	<unknown>
80001082: 00 80        	<unknown>
80001084: 30 04        	<unknown>
80001086: 00 80        	<unknown>
80001088: 30 04        	<unknown>
8000108a: 00 80        	<unknown>
8000108c: 30 04        	<unknown>
8000108e: 00 80        	<unknown>
80001090: 30 04        	<unknown>
80001092: 00 80        	<unknown>
80001094: 30 04        	<unknown>
80001096: 00 80        	<unknown>
80001098: 30 04        	<unknown>
8000109a: 00 80        	<unknown>
8000109c: 30 04        	<unknown>
8000109e: 00 80        	<unknown>
800010a0: 30 04        	<unknown>
800010a2: 00 80        	<unknown>
800010a4: 30 04        	<unknown>
800010a6: 00 80        	<unknown>
800010a8: 30 04        	<unknown>
800010aa: 00 80        	<unknown>
800010ac: 30 04        	<unknown>
800010ae: 00 80        	<unknown>
800010b0: 30 04        	<unknown>
800010b2: 00 80        	<unknown>
800010b4: 30 04        	<unknown>
800010b6: 00 80        	<unknown>
800010b8: 30 04        	<unknown>
800010ba: 00 80        	<unknown>
800010bc: 30 04        	<unknown>
800010be: 00 80        	<unknown>
800010c0: 30 04        	<unknown>
800010c2: 00 80        	<unknown>
800010c4: 30 04        	<unknown>
800010c6: 00 80        	<unknown>
800010c8: 30 04        	<unknown>
800010ca: 00 80        	<unknown>
800010cc: 30 04        	<unknown>
800010ce: 00 80        	<unknown>
800010d0: 30 04        	<unknown>
800010d2: 00 80        	<unknown>
800010d4: 30 04        	<unknown>
800010d6: 00 80        	<unknown>
800010d8: 30 04        	<unknown>
800010da: 00 80        	<unknown>
800010dc: 30 04        	<unknown>
800010de: 00 80        	<unknown>
800010e0: 30 04        	<unknown>
800010e2: 00 80        	<unknown>
800010e4: 30 04        	<unknown>
800010e6: 00 80        	<unknown>
800010e8: 30 04        	<unknown>
800010ea: 00 80        	<unknown>
800010ec: 30 04        	<unknown>
800010ee: 00 80        	<unknown>
800010f0: 30 04        	<unknown>
800010f2: 00 80        	<unknown>
800010f4: 30 04        	<unknown>
800010f6: 00 80        	<unknown>
800010f8: 30 04        	<unknown>
800010fa: 00 80        	<unknown>
800010fc: 30 04        	<unknown>
800010fe: 00 80        	<unknown>
80001100: 30 04        	<unknown>
80001102: 00 80        	<unknown>
80001104: 30 04        	<unknown>
80001106: 00 80        	<unknown>
80001108: 30 04        	<unknown>
8000110a: 00 80        	<unknown>
8000110c: 30 04        	<unknown>
8000110e: 00 80        	<unknown>
80001110: e4 03        	<unknown>
80001112: 00 80        	<unknown>
80001114: 30 04        	<unknown>
80001116: 00 80        	<unknown>
80001118: 30 04        	<unknown>
8000111a: 00 80        	<unknown>
8000111c: 30 04        	<unknown>
8000111e: 00 80        	<unknown>
80001120: 30 04        	<unknown>
80001122: 00 80        	<unknown>
80001124: 30 04        	<unknown>
80001126: 00 80        	<unknown>
80001128: 30 04        	<unknown>
8000112a: 00 80        	<unknown>
8000112c: 30 04        	<unknown>
8000112e: 00 80        	<unknown>
80001130: 30 04        	<unknown>
80001132: 00 80        	<unknown>
80001134: 30 04        	<unknown>
80001136: 00 80        	<unknown>
80001138: 50 04        	<unknown>
8000113a: 00 80        	<unknown>
8000113c: 0c 05        	<unknown>
8000113e: 00 80        	<unknown>
80001140: dc 03        	<unknown>
80001142: 00 80        	<unknown>
80001144: 30 04        	<unknown>
80001146: 00 80        	<unknown>
80001148: 30 04        	<unknown>
8000114a: 00 80        	<unknown>
8000114c: 30 04        	<unknown>
8000114e: 00 80        	<unknown>
80001150: 30 04        	<unknown>
80001152: 00 80        	<unknown>
80001154: dc 03        	<unknown>
80001156: 00 80        	<unknown>
80001158: 30 04        	<unknown>
8000115a: 00 80        	<unknown>
8000115c: 30 04        	<unknown>
8000115e: 00 80        	<unknown>
80001160: 30 04        	<unknown>
80001162: 00 80        	<unknown>
80001164: 30 04        	<unknown>
80001166: 00 80        	<unknown>
80001168: 30 04        	<unknown>
8000116a: 00 80        	<unknown>
8000116c: 54 04        	<unknown>
8000116e: 00 80        	<unknown>
80001170: b8 05        	<unknown>
80001172: 00 80        	<unknown>
80001174: 30 04        	<unknown>
80001176: 00 80        	<unknown>
80001178: 30 04        	<unknown>
8000117a: 00 80        	<unknown>
8000117c: e8 05        	<unknown>
8000117e: 00 80        	<unknown>
80001180: 30 04        	<unknown>
80001182: 00 80        	<unknown>
80001184: dc 03        	<unknown>
80001186: 00 80        	<unknown>
80001188: 30 04        	<unknown>
8000118a: 00 80        	<unknown>
8000118c: 30 04        	<unknown>
8000118e: 00 80        	<unknown>
80001190: e4 03        	<unknown>
80001192: 00 80        	<unknown>

Disassembly of section .l2:

80001194 <.l2>:
...

Disassembly of section .comment:

800011a0 <.comment>:
800011a0: 63 6c 61 6e  	bltu	sp, t1, 0x80001898 <.comment+0x6f8>
800011a4: 67 20 76 65  	<unknown>
800011a8: 72 73        	<unknown>
800011aa: 69 6f        	<unknown>
800011ac: 6e 20        	<unknown>
800011ae: 31 33        	<unknown>
800011b0: 2e 30        	<unknown>
800011b2: 2e 30        	<unknown>
800011b4: 20 28        	<unknown>
800011b6: 68 74        	<unknown>
800011b8: 74 70        	<unknown>
800011ba: 73 3a 2f 2f  	csrrc	s4, 754, t5
800011be: 67 69 74 68  	<unknown>
800011c2: 75 62        	<unknown>
800011c4: 2e 63        	<unknown>
800011c6: 6f 6d 2f 6c  	jal	s10, 0x800f7888 <.comment+0xf66e8>
800011ca: 6c 76        	<unknown>
800011cc: 6d 2f        	<unknown>
800011ce: 6c 6c        	<unknown>
800011d0: 76 6d        	<unknown>
800011d2: 2d 70        	<unknown>
800011d4: 72 6f        	<unknown>
800011d6: 6a 65        	<unknown>
800011d8: 63 74 2e 67  	bgeu	t3, s2, 0x80001840 <.comment+0x6a0>
800011dc: 69 74        	<unknown>
800011de: 20 62        	<unknown>
800011e0: 31 34        	<unknown>
800011e2: 63 38 66 35  	<unknown>
800011e6: 66 36        	<unknown>
800011e8: 65 62        	<unknown>
800011ea: 39 36        	<unknown>
800011ec: 65 37        	<unknown>
800011ee: 30 61        	<unknown>
800011f0: 64 62        	<unknown>
800011f2: 35 35        	<unknown>
800011f4: 33 63 63 38  	<unknown>
800011f8: 61 34        	<unknown>
800011fa: 32 35        	<unknown>
800011fc: 37 35 32 34  	lui	a0, 213795
80001200: 38 38        	<unknown>
80001202: 31 65        	<unknown>
80001204: 30 32        	<unknown>
80001206: 39 29        	<unknown>
80001208: 00           	<unknown>

Disassembly of section .riscv.attributes:

00000000 <.riscv.attributes>:
       0: 41 3c        	<unknown>
       2: 00 00        	<unknown>
       4: 00 72        	<unknown>
       6: 69 73        	<unknown>
       8: 63 76 00 01  	bgeu	zero, a6, 0x14 <.riscv.attributes+0x14>
       c: 32 00        	<unknown>
       e: 00 00        	<unknown>
      10: 04 10        	<unknown>
      12: 05 72        	<unknown>
      14: 76 33        	<unknown>
      16: 32 69        	<unknown>
      18: 32 70        	<unknown>
      1a: 30 5f        	<unknown>
      1c: 6d 32        	<unknown>
      1e: 70 30        	<unknown>
      20: 5f 76 30 70  	<unknown>
      24: 31 30        	<unknown>
      26: 5f 7a 76 61  	<unknown>
      2a: 6d 6f        	<unknown>
      2c: 30 70        	<unknown>
      2e: 31 30        	<unknown>
      30: 5f 7a 76 6c  	<unknown>
      34: 73 73 65 67  	csrrci	t1, 1654, 10
      38: 30 70        	<unknown>
      3a: 31 30        	<unknown>
      3c: 00           	<unknown>

Disassembly of section .symtab:

00000000 <.symtab>:
		...
      14: 00 00        	<unknown>
      16: 00 80        	<unknown>
      18: 00 00        	<unknown>
      1a: 00 00        	<unknown>
      1c: 03 00 01 00  	lb	zero, 0(sp)
      20: 00 00        	<unknown>
      22: 00 00        	<unknown>
      24: 00 10        	<unknown>
      26: 00 80        	<unknown>
      28: 00 00        	<unknown>
      2a: 00 00        	<unknown>
      2c: 03 00 02 00  	lb	zero, 0(tp)
      30: 00 00        	<unknown>
      32: 00 00        	<unknown>
      34: 00 10        	<unknown>
      36: 00 80        	<unknown>
      38: 00 00        	<unknown>
      3a: 00 00        	<unknown>
      3c: 03 00 03 00  	lb	zero, 0(t1)
      40: 00 00        	<unknown>
      42: 00 00        	<unknown>
      44: 94 11        	<unknown>
      46: 00 80        	<unknown>
      48: 00 00        	<unknown>
      4a: 00 00        	<unknown>
      4c: 03 00 04 00  	lb	zero, 0(s0)
      50: 00 00        	<unknown>
      52: 00 00        	<unknown>
      54: a0 11        	<unknown>
      56: 00 80        	<unknown>
      58: 00 00        	<unknown>
      5a: 00 00        	<unknown>
      5c: 03 00 05 00  	lb	zero, 0(a0)
		...
      6c: 03 00 06 00  	lb	zero, 0(a2)
      70: 01 00        	<unknown>
		...
      7a: 00 00        	<unknown>
      7c: 04 00        	<unknown>
      7e: f1 ff        	<unknown>
      80: 0a 00        	<unknown>
      82: 00 00        	<unknown>
      84: 0c 00        	<unknown>
      86: 00 80        	<unknown>
      88: 00 00        	<unknown>
      8a: 00 00        	<unknown>
      8c: 00 00        	<unknown>
      8e: 01 00        	<unknown>
      90: 18 00        	<unknown>
		...
      9a: 00 00        	<unknown>
      9c: 04 00        	<unknown>
      9e: f1 ff        	<unknown>
      a0: 1f 00 00 00  	<unknown>
		...
      ac: 04 00        	<unknown>
      ae: f1 ff        	<unknown>
      b0: 28 00        	<unknown>
      b2: 00 00        	<unknown>
      b4: 68 08        	<unknown>
      b6: 00 80        	<unknown>
      b8: 10 00        	<unknown>
      ba: 00 00        	<unknown>
      bc: 02 00        	<unknown>
      be: 01 00        	<unknown>
      c0: 32 00        	<unknown>
      c2: 00 00        	<unknown>
      c4: 14 01        	<unknown>
      c6: 00 80        	<unknown>
      c8: 54 07        	<unknown>
      ca: 00 00        	<unknown>
      cc: 02 00        	<unknown>
      ce: 01 00        	<unknown>
      d0: 3d 00        	<unknown>
      d2: 00 00        	<unknown>
      d4: cc 09        	<unknown>
      d6: 00 80        	<unknown>
      d8: 04 00        	<unknown>
      da: 00 00        	<unknown>
      dc: 02 00        	<unknown>
      de: 01 00        	<unknown>
      e0: 47 00 00 00  	<unknown>
      e4: d0 09        	<unknown>
      e6: 00 80        	<unknown>
      e8: dc 03        	<unknown>
      ea: 00 00        	<unknown>
      ec: 02 00        	<unknown>
      ee: 01 00        	<unknown>
      f0: 52 00        	<unknown>
      f2: 00 00        	<unknown>
      f4: d0 08        	<unknown>
      f6: 00 80        	<unknown>
      f8: 10 00        	<unknown>
      fa: 00 00        	<unknown>
      fc: 02 00        	<unknown>
      fe: 01 00        	<unknown>
     100: 5e 00        	<unknown>
     102: 00 00        	<unknown>
     104: b8 09        	<unknown>
     106: 00 80        	<unknown>
     108: 14 00        	<unknown>
     10a: 00 00        	<unknown>
     10c: 02 00        	<unknown>
     10e: 01 00        	<unknown>
     110: 67 00 00 00  	jr	zero
		...
     11c: 04 00        	<unknown>
     11e: f1 ff        	<unknown>
     120: 70 00        	<unknown>
		...
     12a: 00 00        	<unknown>
     12c: 04 00        	<unknown>
     12e: f1 ff        	<unknown>
     130: 79 00        	<unknown>
     132: 00 00        	<unknown>
     134: 28 0f        	<unknown>
     136: 00 80        	<unknown>
     138: 20 00        	<unknown>
     13a: 00 00        	<unknown>
     13c: 12 00        	<unknown>
     13e: 01 00        	<unknown>
     140: 80 00        	<unknown>
     142: 00 00        	<unknown>
     144: cc 0f        	<unknown>
     146: 00 80        	<unknown>
     148: 10 00        	<unknown>
     14a: 00 00        	<unknown>
     14c: 12 00        	<unknown>
     14e: 01 00        	<unknown>
     150: 89 00        	<unknown>
     152: 00 00        	<unknown>
     154: a0 11        	<unknown>
     156: 00 80        	<unknown>
     158: 00 00        	<unknown>
     15a: 00 00        	<unknown>
     15c: 10 00        	<unknown>
     15e: 04 00        	<unknown>
     160: 99 00        	<unknown>
     162: 00 00        	<unknown>
     164: 94 19        	<unknown>
     166: 00 80        	<unknown>
     168: 00 00        	<unknown>
     16a: 00 00        	<unknown>
     16c: 10 00        	<unknown>
     16e: 03 00 ab 00  	lb	zero, 10(s6)
     172: 00 00        	<unknown>
     174: 00 00        	<unknown>
     176: 00 40        	<unknown>
     178: 00 00        	<unknown>
     17a: 00 00        	<unknown>
     17c: 10 00        	<unknown>
     17e: f1 ff        	<unknown>
     180: b3 00 00 00  	add	ra, zero, zero
     184: 48 0f        	<unknown>
     186: 00 80        	<unknown>
     188: 84 00        	<unknown>
     18a: 00 00        	<unknown>
     18c: 12 00        	<unknown>
     18e: 01 00        	<unknown>
     190: b8 00        	<unknown>
     192: 00 00        	<unknown>
     194: ac 0d        	<unknown>
     196: 00 80        	<unknown>
     198: 60 00        	<unknown>
     19a: 00 00        	<unknown>
     19c: 12 00        	<unknown>
     19e: 01 00        	<unknown>
     1a0: bf 00 00 00  	<unknown>
     1a4: 78 08        	<unknown>
     1a6: 00 80        	<unknown>
     1a8: 58 00        	<unknown>
     1aa: 00 00        	<unknown>
     1ac: 12 00        	<unknown>
     1ae: 01 00        	<unknown>
     1b0: c8 00        	<unknown>
     1b2: 00 00        	<unknown>
     1b4: 94 11        	<unknown>
     1b6: 00 80        	<unknown>
     1b8: 00 00        	<unknown>
     1ba: 00 00        	<unknown>
     1bc: 10 00        	<unknown>
     1be: 03 00 d2 00  	lb	zero, 13(tp)
     1c2: 00 00        	<unknown>
     1c4: 34 09        	<unknown>
     1c6: 00 80        	<unknown>
     1c8: 28 00        	<unknown>
     1ca: 00 00        	<unknown>
     1cc: 12 00        	<unknown>
     1ce: 01 00        	<unknown>
     1d0: dd 00        	<unknown>
     1d2: 00 00        	<unknown>
     1d4: 5c 09        	<unknown>
     1d6: 00 80        	<unknown>
     1d8: 5c 00        	<unknown>
     1da: 00 00        	<unknown>
     1dc: 12 00        	<unknown>
     1de: 01 00        	<unknown>
     1e0: eb 00 00 00  	<unknown>
     1e4: 00 00        	<unknown>
     1e6: 00 80        	<unknown>
     1e8: 00 00        	<unknown>
     1ea: 00 00        	<unknown>
     1ec: 10 00        	<unknown>
     1ee: 01 00        	<unknown>
     1f0: e7 00 00 00  	jalr	zero
     1f4: 00 00        	<unknown>
     1f6: 00 80        	<unknown>
     1f8: 00 00        	<unknown>
     1fa: 00 00        	<unknown>
     1fc: 10 00        	<unknown>
     1fe: 01 00        	<unknown>
     200: f2 00        	<unknown>
     202: 00 00        	<unknown>
     204: b4 0e        	<unknown>
     206: 00 80        	<unknown>
     208: 74 00        	<unknown>
     20a: 00 00        	<unknown>
     20c: 12 00        	<unknown>
     20e: 01 00        	<unknown>
     210: f9 00        	<unknown>
     212: 00 00        	<unknown>
     214: 00 00        	<unknown>
     216: 00 c0        	<unknown>
     218: 00 00        	<unknown>
     21a: 00 00        	<unknown>
     21c: 10 00        	<unknown>
     21e: f1 ff        	<unknown>
     220: 03 01 00 00  	lb	sp, 0(zero)
     224: 94 11        	<unknown>
     226: 00 80        	<unknown>
     228: 00 00        	<unknown>
     22a: 00 00        	<unknown>
     22c: 10 00        	<unknown>
     22e: 03 00 0f 01  	lb	zero, 16(t5)
     232: 00 00        	<unknown>
     234: 0c 0e        	<unknown>
     236: 00 80        	<unknown>
     238: 60 00        	<unknown>
     23a: 00 00        	<unknown>
     23c: 12 00        	<unknown>
     23e: 01 00        	<unknown>
     240: 16 01        	<unknown>
     242: 00 00        	<unknown>
     244: ac 00        	<unknown>
     246: 00 80        	<unknown>
     248: 0c 00        	<unknown>
     24a: 00 00        	<unknown>
     24c: 12 00        	<unknown>
     24e: 01 00        	<unknown>
     250: 1b 01 00 00  	<unknown>
     254: 8c 00        	<unknown>
     256: 00 80        	<unknown>
     258: 00 00        	<unknown>
     25a: 00 00        	<unknown>
     25c: 10 00        	<unknown>
     25e: 01 00        	<unknown>
     260: 20 01        	<unknown>
     262: 00 00        	<unknown>
     264: 88 0e        	<unknown>
     266: 00 80        	<unknown>
     268: 2c 00        	<unknown>
     26a: 00 00        	<unknown>
     26c: 12 00        	<unknown>
     26e: 01 00        	<unknown>
     270: d3 00 00 00  	<unknown>
     274: e0 08        	<unknown>
     276: 00 80        	<unknown>
     278: 54 00        	<unknown>
     27a: 00 00        	<unknown>
     27c: 12 00        	<unknown>
     27e: 01 00        	<unknown>
     280: d5 00        	<unknown>
     282: 00 00        	<unknown>
     284: b8 00        	<unknown>
     286: 00 80        	<unknown>
     288: 5c 00        	<unknown>
     28a: 00 00        	<unknown>
     28c: 12 00        	<unknown>
     28e: 01 00        	<unknown>
     290: 27 01 00 00  	vse8.v	v2, (zero), v0.t
     294: 6c 0e        	<unknown>
     296: 00 80        	<unknown>
     298: 1c 00        	<unknown>
     29a: 00 00        	<unknown>
     29c: 12 00        	<unknown>
     29e: 01 00        	<unknown>
     2a0: 2e 01        	<unknown>
     2a2: 00 00        	<unknown>
     2a4: 00 00        	<unknown>
     2a6: 00 82        	<unknown>
     2a8: 00 00        	<unknown>
     2aa: 00 00        	<unknown>
     2ac: 10 00        	<unknown>
     2ae: 01 00        	<unknown>

Disassembly of section .strtab:

00000000 <.strtab>:
       0: 00 63        	<unknown>
       2: 72 74        	<unknown>
       4: 30 2e        	<unknown>
       6: 53 2e 6f 00  	<unknown>
       a: 5f 72 65 73  	<unknown>
       e: 65 74        	<unknown>
      10: 5f 76 65 63  	<unknown>
      14: 74 6f        	<unknown>
      16: 72 00        	<unknown>
      18: 6d 61        	<unknown>
      1a: 69 6e        	<unknown>
      1c: 2e 63        	<unknown>
      1e: 00 70        	<unknown>
      20: 72 69        	<unknown>
      22: 6e 74        	<unknown>
      24: 66 2e        	<unknown>
      26: 63 00 5f 6f  	beq	t5, s5, 0x706 <.symtab+0x706>
      2a: 75 74        	<unknown>
      2c: 5f 63 68 61  	<unknown>
      30: 72 00        	<unknown>
      32: 5f 76 73 6e  	<unknown>
      36: 70 72        	<unknown>
      38: 69 6e        	<unknown>
      3a: 74 66        	<unknown>
      3c: 00 5f        	<unknown>
      3e: 6f 75 74 5f  	jal	a0, 0x47e34 <.symtab+0x47e34>
      42: 6e 75        	<unknown>
      44: 6c 6c        	<unknown>
      46: 00 5f        	<unknown>
      48: 6e 74        	<unknown>
      4a: 6f 61 5f 6c  	jal	sp, 0xf6f0e <.symtab+0xf6f0e>
      4e: 6f 6e 67 00  	jal	t3, 0x76054 <.symtab+0x76054>
      52: 5f 6f 75 74  	<unknown>
      56: 5f 62 75 66  	<unknown>
      5a: 66 65        	<unknown>
      5c: 72 00        	<unknown>
      5e: 5f 6f 75 74  	<unknown>
      62: 5f 66 63 74  	<unknown>
      66: 00 73        	<unknown>
      68: 74 72        	<unknown>
      6a: 69 6e        	<unknown>
      6c: 67 2e 63 00  	<unknown>
      70: 73 65 72 69  	csrrsi	a0, 1687, 4
      74: 61 6c        	<unknown>
      76: 2e 63        	<unknown>
      78: 00 73        	<unknown>
      7a: 74 72        	<unknown>
      7c: 63 70 79 00  	bgeu	s2, t2, 0x7c <.symtab+0x7c>
      80: 5f 70 75 74  	<unknown>
      84: 63 68 61 72  	bltu	sp, t1, 0x7b4 <.symtab+0x7b4>
      88: 00 5f        	<unknown>
      8a: 5f 6c 32 5f  	<unknown>
      8e: 61 6c        	<unknown>
      90: 6c 6f        	<unknown>
      92: 63 5f 62 61  	bge	tp, s6, 0x6b0 <.symtab+0x6b0>
      96: 73 65 00 5f  	csrrsi	a0, 1520, 0
      9a: 5f 67 6c 6f  	<unknown>
      9e: 62 61        	<unknown>
      a0: 6c 5f        	<unknown>
      a2: 70 6f        	<unknown>
      a4: 69 6e        	<unknown>
      a6: 74 65        	<unknown>
      a8: 72 24        	<unknown>
      aa: 00 65        	<unknown>
      ac: 6f 63 5f 72  	jal	t1, 0xf6fd0 <.symtab+0xf6fd0>
      b0: 65 67        	<unknown>
      b2: 00 61        	<unknown>
      b4: 74 6f        	<unknown>
      b6: 6c 00        	<unknown>
      b8: 6d 65        	<unknown>
      ba: 6d 63        	<unknown>
      bc: 70 79        	<unknown>
      be: 00 73        	<unknown>
      c0: 70 72        	<unknown>
      c2: 69 6e        	<unknown>
      c4: 74 66        	<unknown>
      c6: 5f 00 5f 5f  	<unknown>
      ca: 62 73        	<unknown>
      cc: 73 5f 65 6e  	csrrwi	t5, 1766, 10
      d0: 64 00        	<unknown>
      d2: 76 73        	<unknown>
      d4: 6e 70        	<unknown>
      d6: 72 69        	<unknown>
      d8: 6e 74        	<unknown>
      da: 66 5f        	<unknown>
      dc: 00 66        	<unknown>
      de: 63 74 70 72  	bgeu	zero, t2, 0x806 <.symtab+0x806>
      e2: 69 6e        	<unknown>
      e4: 74 66        	<unknown>
      e6: 00 5f        	<unknown>
      e8: 5f 6c 32 5f  	<unknown>
      ec: 73 74 61 72  	csrrci	s0, 1830, 2
      f0: 74 00        	<unknown>
      f2: 6d 65        	<unknown>
      f4: 6d 63        	<unknown>
      f6: 6d 70        	<unknown>
      f8: 00 66        	<unknown>
      fa: 61 6b        	<unknown>
      fc: 65 5f        	<unknown>
      fe: 75 61        	<unknown>
     100: 72 74        	<unknown>
     102: 00 5f        	<unknown>
     104: 5f 62 73 73  	<unknown>
     108: 5f 73 74 61  	<unknown>
     10c: 72 74        	<unknown>
     10e: 00 6d        	<unknown>
     110: 65 6d        	<unknown>
     112: 73 65 74 00  	csrrsi	a0, 7, 8
     116: 6d 61        	<unknown>
     118: 69 6e        	<unknown>
     11a: 00 5f        	<unknown>
     11c: 65 6f        	<unknown>
     11e: 63 00 73 74  	beq	t1, t2, 0x85e <.symtab+0x85e>
     122: 72 63        	<unknown>
     124: 6d 70        	<unknown>
     126: 00 73        	<unknown>
     128: 74 72        	<unknown>
     12a: 6c 65        	<unknown>
     12c: 6e 00        	<unknown>
     12e: 5f 5f 6c 32  	<unknown>
     132: 5f 65 6e 64  	<unknown>
     136: 00           	<unknown>

Disassembly of section .shstrtab:

00000000 <.shstrtab>:
       0: 00 2e        	<unknown>
       2: 73 79 6d 74  	csrrci	s2, 1862, 26
       6: 61 62        	<unknown>
       8: 00 2e        	<unknown>
       a: 73 74 72 74  	csrrci	s0, 1863, 4
       e: 61 62        	<unknown>
      10: 00 2e        	<unknown>
      12: 73 68 73 74  	csrrsi	a6, 1863, 6
      16: 72 74        	<unknown>
      18: 61 62        	<unknown>
      1a: 00 2e        	<unknown>
      1c: 74 65        	<unknown>
      1e: 78 74        	<unknown>
      20: 00 2e        	<unknown>
      22: 64 61        	<unknown>
      24: 74 61        	<unknown>
      26: 00 2e        	<unknown>
      28: 72 6f        	<unknown>
      2a: 64 61        	<unknown>
      2c: 74 61        	<unknown>
      2e: 00 2e        	<unknown>
      30: 6c 32        	<unknown>
      32: 00 2e        	<unknown>
      34: 63 6f 6d 6d  	bltu	s10, s6, 0x712 <.symtab+0x712>
      38: 65 6e        	<unknown>
      3a: 74 00        	<unknown>
      3c: 2e 72        	<unknown>
      3e: 69 73        	<unknown>
      40: 63 76 2e 61  	bgeu	t3, s2, 0x64c <.symtab+0x64c>
      44: 74 74        	<unknown>
      46: 72 69        	<unknown>
      48: 62 75        	<unknown>
      4a: 74 65        	<unknown>
      4c: 73           	<unknown>
      4d: 00           	<unknown>
